	.file	"Tarea.cpp"
	.text
	.section	.text._ZSt23__is_constant_evaluatedv,"axG",@progbits,_ZSt23__is_constant_evaluatedv,comdat
	.weak	_ZSt23__is_constant_evaluatedv
	.type	_ZSt23__is_constant_evaluatedv, @function
_ZSt23__is_constant_evaluatedv:
.LFB1:
	.cfi_startproc
	endbr64
	pushq	%rbp
	.cfi_def_cfa_offset 16
	.cfi_offset 6, -16
	movq	%rsp, %rbp
	.cfi_def_cfa_register 6
	movl	$0, %eax
	popq	%rbp
	.cfi_def_cfa 7, 8
	ret
	.cfi_endproc
.LFE1:
	.size	_ZSt23__is_constant_evaluatedv, .-_ZSt23__is_constant_evaluatedv
	.section	.text._ZnwmPv,"axG",@progbits,_ZnwmPv,comdat
	.weak	_ZnwmPv
	.type	_ZnwmPv, @function
_ZnwmPv:
.LFB40:
	.cfi_startproc
	endbr64
	pushq	%rbp
	.cfi_def_cfa_offset 16
	.cfi_offset 6, -16
	movq	%rsp, %rbp
	.cfi_def_cfa_register 6
	movq	%rdi, -8(%rbp)
	movq	%rsi, -16(%rbp)
	movq	-16(%rbp), %rax
	popq	%rbp
	.cfi_def_cfa 7, 8
	ret
	.cfi_endproc
.LFE40:
	.size	_ZnwmPv, .-_ZnwmPv
	.section	.text._ZdlPvS_,"axG",@progbits,_ZdlPvS_,comdat
	.weak	_ZdlPvS_
	.type	_ZdlPvS_, @function
_ZdlPvS_:
.LFB42:
	.cfi_startproc
	endbr64
	pushq	%rbp
	.cfi_def_cfa_offset 16
	.cfi_offset 6, -16
	movq	%rsp, %rbp
	.cfi_def_cfa_register 6
	movq	%rdi, -8(%rbp)
	movq	%rsi, -16(%rbp)
	nop
	popq	%rbp
	.cfi_def_cfa 7, 8
	ret
	.cfi_endproc
.LFE42:
	.size	_ZdlPvS_, .-_ZdlPvS_
	.section	.text._ZNSt11char_traitsIcE2ltERKcS2_,"axG",@progbits,_ZNSt11char_traitsIcE2ltERKcS2_,comdat
	.weak	_ZNSt11char_traitsIcE2ltERKcS2_
	.type	_ZNSt11char_traitsIcE2ltERKcS2_, @function
_ZNSt11char_traitsIcE2ltERKcS2_:
.LFB117:
	.cfi_startproc
	endbr64
	pushq	%rbp
	.cfi_def_cfa_offset 16
	.cfi_offset 6, -16
	movq	%rsp, %rbp
	.cfi_def_cfa_register 6
	movq	%rdi, -8(%rbp)
	movq	%rsi, -16(%rbp)
	movq	-8(%rbp), %rax
	movzbl	(%rax), %eax
	movl	%eax, %edx
	movq	-16(%rbp), %rax
	movzbl	(%rax), %eax
	cmpb	%al, %dl
	setb	%al
	popq	%rbp
	.cfi_def_cfa 7, 8
	ret
	.cfi_endproc
.LFE117:
	.size	_ZNSt11char_traitsIcE2ltERKcS2_, .-_ZNSt11char_traitsIcE2ltERKcS2_
	.section	.text._ZNSt11char_traitsIcE7compareEPKcS2_m,"axG",@progbits,_ZNSt11char_traitsIcE7compareEPKcS2_m,comdat
	.weak	_ZNSt11char_traitsIcE7compareEPKcS2_m
	.type	_ZNSt11char_traitsIcE7compareEPKcS2_m, @function
_ZNSt11char_traitsIcE7compareEPKcS2_m:
.LFB118:
	.cfi_startproc
	endbr64
	pushq	%rbp
	.cfi_def_cfa_offset 16
	.cfi_offset 6, -16
	movq	%rsp, %rbp
	.cfi_def_cfa_register 6
	subq	$48, %rsp
	movq	%rdi, -24(%rbp)
	movq	%rsi, -32(%rbp)
	movq	%rdx, -40(%rbp)
	cmpq	$0, -40(%rbp)
	jne	.L9
	movl	$0, %eax
	jmp	.L10
.L9:
	call	_ZSt23__is_constant_evaluatedv
	testb	%al, %al
	je	.L11
	movq	$0, -8(%rbp)
	jmp	.L12
.L15:
	movq	-32(%rbp), %rdx
	movq	-8(%rbp), %rax
	addq	%rax, %rdx
	movq	-24(%rbp), %rcx
	movq	-8(%rbp), %rax
	addq	%rcx, %rax
	movq	%rdx, %rsi
	movq	%rax, %rdi
	call	_ZNSt11char_traitsIcE2ltERKcS2_
	testb	%al, %al
	je	.L13
	movl	$-1, %eax
	jmp	.L10
.L13:
	movq	-24(%rbp), %rdx
	movq	-8(%rbp), %rax
	addq	%rax, %rdx
	movq	-32(%rbp), %rcx
	movq	-8(%rbp), %rax
	addq	%rcx, %rax
	movq	%rdx, %rsi
	movq	%rax, %rdi
	call	_ZNSt11char_traitsIcE2ltERKcS2_
	testb	%al, %al
	je	.L14
	movl	$1, %eax
	jmp	.L10
.L14:
	addq	$1, -8(%rbp)
.L12:
	movq	-8(%rbp), %rax
	cmpq	-40(%rbp), %rax
	jb	.L15
	movl	$0, %eax
	jmp	.L10
.L11:
	movq	-40(%rbp), %rdx
	movq	-32(%rbp), %rcx
	movq	-24(%rbp), %rax
	movq	%rcx, %rsi
	movq	%rax, %rdi
	call	memcmp@PLT
	nop
.L10:
	leave
	.cfi_def_cfa 7, 8
	ret
	.cfi_endproc
.LFE118:
	.size	_ZNSt11char_traitsIcE7compareEPKcS2_m, .-_ZNSt11char_traitsIcE7compareEPKcS2_m
	.section	.text._ZNSt11char_traitsIcE6lengthEPKc,"axG",@progbits,_ZNSt11char_traitsIcE6lengthEPKc,comdat
	.weak	_ZNSt11char_traitsIcE6lengthEPKc
	.type	_ZNSt11char_traitsIcE6lengthEPKc, @function
_ZNSt11char_traitsIcE6lengthEPKc:
.LFB119:
	.cfi_startproc
	endbr64
	pushq	%rbp
	.cfi_def_cfa_offset 16
	.cfi_offset 6, -16
	movq	%rsp, %rbp
	.cfi_def_cfa_register 6
	subq	$16, %rsp
	movq	%rdi, -8(%rbp)
	call	_ZSt23__is_constant_evaluatedv
	testb	%al, %al
	je	.L17
	movq	-8(%rbp), %rax
	movq	%rax, %rdi
	call	_ZN9__gnu_cxx11char_traitsIcE6lengthEPKc
	jmp	.L18
.L17:
	movq	-8(%rbp), %rax
	movq	%rax, %rdi
	call	strlen@PLT
	nop
.L18:
	leave
	.cfi_def_cfa 7, 8
	ret
	.cfi_endproc
.LFE119:
	.size	_ZNSt11char_traitsIcE6lengthEPKc, .-_ZNSt11char_traitsIcE6lengthEPKc
	.weak	_ZSt19piecewise_construct
	.section	.rodata._ZSt19piecewise_construct,"aG",@progbits,_ZSt19piecewise_construct,comdat
	.type	_ZSt19piecewise_construct, @gnu_unique_object
	.size	_ZSt19piecewise_construct, 1
_ZSt19piecewise_construct:
	.zero	1
	.local	_ZStL8__ioinit
	.comm	_ZStL8__ioinit,1,1
	.section	.text._ZNSt18_Rb_tree_node_base10_S_minimumEPS_,"axG",@progbits,_ZNSt18_Rb_tree_node_base10_S_minimumEPS_,comdat
	.weak	_ZNSt18_Rb_tree_node_base10_S_minimumEPS_
	.type	_ZNSt18_Rb_tree_node_base10_S_minimumEPS_, @function
_ZNSt18_Rb_tree_node_base10_S_minimumEPS_:
.LFB2945:
	.cfi_startproc
	endbr64
	pushq	%rbp
	.cfi_def_cfa_offset 16
	.cfi_offset 6, -16
	movq	%rsp, %rbp
	.cfi_def_cfa_register 6
	movq	%rdi, -8(%rbp)
	jmp	.L20
.L21:
	movq	-8(%rbp), %rax
	movq	16(%rax), %rax
	movq	%rax, -8(%rbp)
.L20:
	movq	-8(%rbp), %rax
	movq	16(%rax), %rax
	testq	%rax, %rax
	jne	.L21
	movq	-8(%rbp), %rax
	popq	%rbp
	.cfi_def_cfa 7, 8
	ret
	.cfi_endproc
.LFE2945:
	.size	_ZNSt18_Rb_tree_node_base10_S_minimumEPS_, .-_ZNSt18_Rb_tree_node_base10_S_minimumEPS_
	.section	.text._ZNSt18_Rb_tree_node_base10_S_maximumEPS_,"axG",@progbits,_ZNSt18_Rb_tree_node_base10_S_maximumEPS_,comdat
	.weak	_ZNSt18_Rb_tree_node_base10_S_maximumEPS_
	.type	_ZNSt18_Rb_tree_node_base10_S_maximumEPS_, @function
_ZNSt18_Rb_tree_node_base10_S_maximumEPS_:
.LFB2947:
	.cfi_startproc
	endbr64
	pushq	%rbp
	.cfi_def_cfa_offset 16
	.cfi_offset 6, -16
	movq	%rsp, %rbp
	.cfi_def_cfa_register 6
	movq	%rdi, -8(%rbp)
	jmp	.L24
.L25:
	movq	-8(%rbp), %rax
	movq	24(%rax), %rax
	movq	%rax, -8(%rbp)
.L24:
	movq	-8(%rbp), %rax
	movq	24(%rax), %rax
	testq	%rax, %rax
	jne	.L25
	movq	-8(%rbp), %rax
	popq	%rbp
	.cfi_def_cfa 7, 8
	ret
	.cfi_endproc
.LFE2947:
	.size	_ZNSt18_Rb_tree_node_base10_S_maximumEPS_, .-_ZNSt18_Rb_tree_node_base10_S_maximumEPS_
	.section	.text._ZNSt15_Rb_tree_headerC2Ev,"axG",@progbits,_ZNSt15_Rb_tree_headerC5Ev,comdat
	.align 2
	.weak	_ZNSt15_Rb_tree_headerC2Ev
	.type	_ZNSt15_Rb_tree_headerC2Ev, @function
_ZNSt15_Rb_tree_headerC2Ev:
.LFB2953:
	.cfi_startproc
	endbr64
	pushq	%rbp
	.cfi_def_cfa_offset 16
	.cfi_offset 6, -16
	movq	%rsp, %rbp
	.cfi_def_cfa_register 6
	subq	$16, %rsp
	movq	%rdi, -8(%rbp)
	movq	-8(%rbp), %rax
	movl	$0, (%rax)
	movq	-8(%rbp), %rax
	movq	%rax, %rdi
	call	_ZNSt15_Rb_tree_header8_M_resetEv
	nop
	leave
	.cfi_def_cfa 7, 8
	ret
	.cfi_endproc
.LFE2953:
	.size	_ZNSt15_Rb_tree_headerC2Ev, .-_ZNSt15_Rb_tree_headerC2Ev
	.weak	_ZNSt15_Rb_tree_headerC1Ev
	.set	_ZNSt15_Rb_tree_headerC1Ev,_ZNSt15_Rb_tree_headerC2Ev
	.section	.text._ZNSt15_Rb_tree_header12_M_move_dataERS_,"axG",@progbits,_ZNSt15_Rb_tree_header12_M_move_dataERS_,comdat
	.align 2
	.weak	_ZNSt15_Rb_tree_header12_M_move_dataERS_
	.type	_ZNSt15_Rb_tree_header12_M_move_dataERS_, @function
_ZNSt15_Rb_tree_header12_M_move_dataERS_:
.LFB2958:
	.cfi_startproc
	endbr64
	pushq	%rbp
	.cfi_def_cfa_offset 16
	.cfi_offset 6, -16
	movq	%rsp, %rbp
	.cfi_def_cfa_register 6
	subq	$16, %rsp
	movq	%rdi, -8(%rbp)
	movq	%rsi, -16(%rbp)
	movq	-16(%rbp), %rax
	movl	(%rax), %edx
	movq	-8(%rbp), %rax
	movl	%edx, (%rax)
	movq	-16(%rbp), %rax
	movq	8(%rax), %rdx
	movq	-8(%rbp), %rax
	movq	%rdx, 8(%rax)
	movq	-16(%rbp), %rax
	movq	16(%rax), %rdx
	movq	-8(%rbp), %rax
	movq	%rdx, 16(%rax)
	movq	-16(%rbp), %rax
	movq	24(%rax), %rdx
	movq	-8(%rbp), %rax
	movq	%rdx, 24(%rax)
	movq	-8(%rbp), %rax
	movq	8(%rax), %rax
	movq	-8(%rbp), %rdx
	movq	%rdx, 8(%rax)
	movq	-16(%rbp), %rax
	movq	32(%rax), %rdx
	movq	-8(%rbp), %rax
	movq	%rdx, 32(%rax)
	movq	-16(%rbp), %rax
	movq	%rax, %rdi
	call	_ZNSt15_Rb_tree_header8_M_resetEv
	nop
	leave
	.cfi_def_cfa 7, 8
	ret
	.cfi_endproc
.LFE2958:
	.size	_ZNSt15_Rb_tree_header12_M_move_dataERS_, .-_ZNSt15_Rb_tree_header12_M_move_dataERS_
	.section	.text._ZNSt15_Rb_tree_header8_M_resetEv,"axG",@progbits,_ZNSt15_Rb_tree_header8_M_resetEv,comdat
	.align 2
	.weak	_ZNSt15_Rb_tree_header8_M_resetEv
	.type	_ZNSt15_Rb_tree_header8_M_resetEv, @function
_ZNSt15_Rb_tree_header8_M_resetEv:
.LFB2959:
	.cfi_startproc
	endbr64
	pushq	%rbp
	.cfi_def_cfa_offset 16
	.cfi_offset 6, -16
	movq	%rsp, %rbp
	.cfi_def_cfa_register 6
	movq	%rdi, -8(%rbp)
	movq	-8(%rbp), %rax
	movq	$0, 8(%rax)
	movq	-8(%rbp), %rdx
	movq	-8(%rbp), %rax
	movq	%rdx, 16(%rax)
	movq	-8(%rbp), %rdx
	movq	-8(%rbp), %rax
	movq	%rdx, 24(%rax)
	movq	-8(%rbp), %rax
	movq	$0, 32(%rax)
	nop
	popq	%rbp
	.cfi_def_cfa 7, 8
	ret
	.cfi_endproc
.LFE2959:
	.size	_ZNSt15_Rb_tree_header8_M_resetEv, .-_ZNSt15_Rb_tree_header8_M_resetEv
	.section	.text._ZSt16__deque_buf_sizem,"axG",@progbits,_ZSt16__deque_buf_sizem,comdat
	.weak	_ZSt16__deque_buf_sizem
	.type	_ZSt16__deque_buf_sizem, @function
_ZSt16__deque_buf_sizem:
.LFB3489:
	.cfi_startproc
	endbr64
	pushq	%rbp
	.cfi_def_cfa_offset 16
	.cfi_offset 6, -16
	movq	%rsp, %rbp
	.cfi_def_cfa_register 6
	movq	%rdi, -8(%rbp)
	cmpq	$511, -8(%rbp)
	ja	.L31
	movl	$512, %eax
	movl	$0, %edx
	divq	-8(%rbp)
	jmp	.L33
.L31:
	movl	$1, %eax
.L33:
	popq	%rbp
	.cfi_def_cfa 7, 8
	ret
	.cfi_endproc
.LFE3489:
	.size	_ZSt16__deque_buf_sizem, .-_ZSt16__deque_buf_sizem
	.section	.rodata
	.type	_ZN6__pstl9execution2v1L3seqE, @object
	.size	_ZN6__pstl9execution2v1L3seqE, 1
_ZN6__pstl9execution2v1L3seqE:
	.zero	1
	.type	_ZN6__pstl9execution2v1L3parE, @object
	.size	_ZN6__pstl9execution2v1L3parE, 1
_ZN6__pstl9execution2v1L3parE:
	.zero	1
	.type	_ZN6__pstl9execution2v1L9par_unseqE, @object
	.size	_ZN6__pstl9execution2v1L9par_unseqE, 1
_ZN6__pstl9execution2v1L9par_unseqE:
	.zero	1
	.type	_ZN6__pstl9execution2v1L5unseqE, @object
	.size	_ZN6__pstl9execution2v1L5unseqE, 1
_ZN6__pstl9execution2v1L5unseqE:
	.zero	1
	.text
	.globl	_Z7RSelectv
	.type	_Z7RSelectv, @function
_Z7RSelectv:
.LFB4119:
	.cfi_startproc
	endbr64
	pushq	%rbp
	.cfi_def_cfa_offset 16
	.cfi_offset 6, -16
	movq	%rsp, %rbp
	.cfi_def_cfa_register 6
	movl	$0, %eax
	popq	%rbp
	.cfi_def_cfa 7, 8
	ret
	.cfi_endproc
.LFE4119:
	.size	_Z7RSelectv, .-_Z7RSelectv
	.globl	_Z7DSelectv
	.type	_Z7DSelectv, @function
_Z7DSelectv:
.LFB4120:
	.cfi_startproc
	endbr64
	pushq	%rbp
	.cfi_def_cfa_offset 16
	.cfi_offset 6, -16
	movq	%rsp, %rbp
	.cfi_def_cfa_register 6
	movl	$0, %eax
	popq	%rbp
	.cfi_def_cfa 7, 8
	ret
	.cfi_endproc
.LFE4120:
	.size	_Z7DSelectv, .-_Z7DSelectv
	.section	.text._ZNK4nodeeqERKS_,"axG",@progbits,_ZNK4nodeeqERKS_,comdat
	.align 2
	.weak	_ZNK4nodeeqERKS_
	.type	_ZNK4nodeeqERKS_, @function
_ZNK4nodeeqERKS_:
.LFB4121:
	.cfi_startproc
	endbr64
	pushq	%rbp
	.cfi_def_cfa_offset 16
	.cfi_offset 6, -16
	movq	%rsp, %rbp
	.cfi_def_cfa_register 6
	subq	$16, %rsp
	movq	%rdi, -8(%rbp)
	movq	%rsi, -16(%rbp)
	movq	-16(%rbp), %rdx
	movq	-8(%rbp), %rax
	movq	%rdx, %rsi
	movq	%rax, %rdi
	call	_ZSteqIcEN9__gnu_cxx11__enable_ifIXsrSt9__is_charIT_E7__valueEbE6__typeERKNSt7__cxx1112basic_stringIS3_St11char_traitsIS3_ESaIS3_EEESE_
	leave
	.cfi_def_cfa 7, 8
	ret
	.cfi_endproc
.LFE4121:
	.size	_ZNK4nodeeqERKS_, .-_ZNK4nodeeqERKS_
	.section	.text._ZNK4nodeneERKS_,"axG",@progbits,_ZNK4nodeneERKS_,comdat
	.align 2
	.weak	_ZNK4nodeneERKS_
	.type	_ZNK4nodeneERKS_, @function
_ZNK4nodeneERKS_:
.LFB4122:
	.cfi_startproc
	endbr64
	pushq	%rbp
	.cfi_def_cfa_offset 16
	.cfi_offset 6, -16
	movq	%rsp, %rbp
	.cfi_def_cfa_register 6
	subq	$16, %rsp
	movq	%rdi, -8(%rbp)
	movq	%rsi, -16(%rbp)
	movq	-16(%rbp), %rdx
	movq	-8(%rbp), %rax
	movq	%rdx, %rsi
	movq	%rax, %rdi
	call	_ZStneIcSt11char_traitsIcESaIcEEbRKNSt7__cxx1112basic_stringIT_T0_T1_EESA_
	leave
	.cfi_def_cfa 7, 8
	ret
	.cfi_endproc
.LFE4122:
	.size	_ZNK4nodeneERKS_, .-_ZNK4nodeneERKS_
	.section	.text._ZNK4nodeltERKS_,"axG",@progbits,_ZNK4nodeltERKS_,comdat
	.align 2
	.weak	_ZNK4nodeltERKS_
	.type	_ZNK4nodeltERKS_, @function
_ZNK4nodeltERKS_:
.LFB4123:
	.cfi_startproc
	endbr64
	pushq	%rbp
	.cfi_def_cfa_offset 16
	.cfi_offset 6, -16
	movq	%rsp, %rbp
	.cfi_def_cfa_register 6
	subq	$16, %rsp
	movq	%rdi, -8(%rbp)
	movq	%rsi, -16(%rbp)
	movq	-16(%rbp), %rdx
	movq	-8(%rbp), %rax
	movq	%rdx, %rsi
	movq	%rax, %rdi
	call	_ZStltIcSt11char_traitsIcESaIcEEbRKNSt7__cxx1112basic_stringIT_T0_T1_EESA_
	leave
	.cfi_def_cfa 7, 8
	ret
	.cfi_endproc
.LFE4123:
	.size	_ZNK4nodeltERKS_, .-_ZNK4nodeltERKS_
	.section	.text._ZNSt3mapI4nodeSt6vectorIS0_SaIS0_EESt4lessIS0_ESaISt4pairIKS0_S3_EEEC2ERKSA_,"axG",@progbits,_ZNSt3mapI4nodeSt6vectorIS0_SaIS0_EESt4lessIS0_ESaISt4pairIKS0_S3_EEEC5ERKSA_,comdat
	.align 2
	.weak	_ZNSt3mapI4nodeSt6vectorIS0_SaIS0_EESt4lessIS0_ESaISt4pairIKS0_S3_EEEC2ERKSA_
	.type	_ZNSt3mapI4nodeSt6vectorIS0_SaIS0_EESt4lessIS0_ESaISt4pairIKS0_S3_EEEC2ERKSA_, @function
_ZNSt3mapI4nodeSt6vectorIS0_SaIS0_EESt4lessIS0_ESaISt4pairIKS0_S3_EEEC2ERKSA_:
.LFB4126:
	.cfi_startproc
	endbr64
	pushq	%rbp
	.cfi_def_cfa_offset 16
	.cfi_offset 6, -16
	movq	%rsp, %rbp
	.cfi_def_cfa_register 6
	subq	$16, %rsp
	movq	%rdi, -8(%rbp)
	movq	%rsi, -16(%rbp)
	movq	-8(%rbp), %rax
	movq	-16(%rbp), %rdx
	movq	%rdx, %rsi
	movq	%rax, %rdi
	call	_ZNSt8_Rb_treeI4nodeSt4pairIKS0_St6vectorIS0_SaIS0_EEESt10_Select1stIS6_ESt4lessIS0_ESaIS6_EEC1ERKSC_
	nop
	leave
	.cfi_def_cfa 7, 8
	ret
	.cfi_endproc
.LFE4126:
	.size	_ZNSt3mapI4nodeSt6vectorIS0_SaIS0_EESt4lessIS0_ESaISt4pairIKS0_S3_EEEC2ERKSA_, .-_ZNSt3mapI4nodeSt6vectorIS0_SaIS0_EESt4lessIS0_ESaISt4pairIKS0_S3_EEEC2ERKSA_
	.weak	_ZNSt3mapI4nodeSt6vectorIS0_SaIS0_EESt4lessIS0_ESaISt4pairIKS0_S3_EEEC1ERKSA_
	.set	_ZNSt3mapI4nodeSt6vectorIS0_SaIS0_EESt4lessIS0_ESaISt4pairIKS0_S3_EEEC1ERKSA_,_ZNSt3mapI4nodeSt6vectorIS0_SaIS0_EESt4lessIS0_ESaISt4pairIKS0_S3_EEEC2ERKSA_
	.section	.text._ZNSt3mapI4nodeSt6vectorIS0_SaIS0_EESt4lessIS0_ESaISt4pairIKS0_S3_EEED2Ev,"axG",@progbits,_ZNSt3mapI4nodeSt6vectorIS0_SaIS0_EESt4lessIS0_ESaISt4pairIKS0_S3_EEED5Ev,comdat
	.align 2
	.weak	_ZNSt3mapI4nodeSt6vectorIS0_SaIS0_EESt4lessIS0_ESaISt4pairIKS0_S3_EEED2Ev
	.type	_ZNSt3mapI4nodeSt6vectorIS0_SaIS0_EESt4lessIS0_ESaISt4pairIKS0_S3_EEED2Ev, @function
_ZNSt3mapI4nodeSt6vectorIS0_SaIS0_EESt4lessIS0_ESaISt4pairIKS0_S3_EEED2Ev:
.LFB4129:
	.cfi_startproc
	endbr64
	pushq	%rbp
	.cfi_def_cfa_offset 16
	.cfi_offset 6, -16
	movq	%rsp, %rbp
	.cfi_def_cfa_register 6
	subq	$16, %rsp
	movq	%rdi, -8(%rbp)
	movq	-8(%rbp), %rax
	movq	%rax, %rdi
	call	_ZNSt8_Rb_treeI4nodeSt4pairIKS0_St6vectorIS0_SaIS0_EEESt10_Select1stIS6_ESt4lessIS0_ESaIS6_EED1Ev
	nop
	leave
	.cfi_def_cfa 7, 8
	ret
	.cfi_endproc
.LFE4129:
	.size	_ZNSt3mapI4nodeSt6vectorIS0_SaIS0_EESt4lessIS0_ESaISt4pairIKS0_S3_EEED2Ev, .-_ZNSt3mapI4nodeSt6vectorIS0_SaIS0_EESt4lessIS0_ESaISt4pairIKS0_S3_EEED2Ev
	.weak	_ZNSt3mapI4nodeSt6vectorIS0_SaIS0_EESt4lessIS0_ESaISt4pairIKS0_S3_EEED1Ev
	.set	_ZNSt3mapI4nodeSt6vectorIS0_SaIS0_EESt4lessIS0_ESaISt4pairIKS0_S3_EEED1Ev,_ZNSt3mapI4nodeSt6vectorIS0_SaIS0_EESt4lessIS0_ESaISt4pairIKS0_S3_EEED2Ev
	.section	.text._ZN4nodeC2ERKS_,"axG",@progbits,_ZN4nodeC5ERKS_,comdat
	.align 2
	.weak	_ZN4nodeC2ERKS_
	.type	_ZN4nodeC2ERKS_, @function
_ZN4nodeC2ERKS_:
.LFB4133:
	.cfi_startproc
	endbr64
	pushq	%rbp
	.cfi_def_cfa_offset 16
	.cfi_offset 6, -16
	movq	%rsp, %rbp
	.cfi_def_cfa_register 6
	subq	$16, %rsp
	movq	%rdi, -8(%rbp)
	movq	%rsi, -16(%rbp)
	movq	-8(%rbp), %rax
	movq	-16(%rbp), %rdx
	movq	%rdx, %rsi
	movq	%rax, %rdi
	call	_ZNSt7__cxx1112basic_stringIcSt11char_traitsIcESaIcEEC1ERKS4_@PLT
	movq	-16(%rbp), %rax
	movzbl	32(%rax), %edx
	movq	-8(%rbp), %rax
	movb	%dl, 32(%rax)
	nop
	leave
	.cfi_def_cfa 7, 8
	ret
	.cfi_endproc
.LFE4133:
	.size	_ZN4nodeC2ERKS_, .-_ZN4nodeC2ERKS_
	.weak	_ZN4nodeC1ERKS_
	.set	_ZN4nodeC1ERKS_,_ZN4nodeC2ERKS_
	.section	.text._ZN4nodeD2Ev,"axG",@progbits,_ZN4nodeD5Ev,comdat
	.align 2
	.weak	_ZN4nodeD2Ev
	.type	_ZN4nodeD2Ev, @function
_ZN4nodeD2Ev:
.LFB4136:
	.cfi_startproc
	endbr64
	pushq	%rbp
	.cfi_def_cfa_offset 16
	.cfi_offset 6, -16
	movq	%rsp, %rbp
	.cfi_def_cfa_register 6
	subq	$16, %rsp
	movq	%rdi, -8(%rbp)
	movq	-8(%rbp), %rax
	movq	%rax, %rdi
	call	_ZNSt7__cxx1112basic_stringIcSt11char_traitsIcESaIcEED1Ev@PLT
	nop
	leave
	.cfi_def_cfa 7, 8
	ret
	.cfi_endproc
.LFE4136:
	.size	_ZN4nodeD2Ev, .-_ZN4nodeD2Ev
	.weak	_ZN4nodeD1Ev
	.set	_ZN4nodeD1Ev,_ZN4nodeD2Ev
	.section	.text._ZNSt8_Rb_treeI4nodeSt4pairIKS0_St6vectorIS0_SaIS0_EEESt10_Select1stIS6_ESt4lessIS0_ESaIS6_EE13_Rb_tree_implISA_Lb1EED2Ev,"axG",@progbits,_ZNSt8_Rb_treeI4nodeSt4pairIKS0_St6vectorIS0_SaIS0_EEESt10_Select1stIS6_ESt4lessIS0_ESaIS6_EE13_Rb_tree_implISA_Lb1EED5Ev,comdat
	.align 2
	.weak	_ZNSt8_Rb_treeI4nodeSt4pairIKS0_St6vectorIS0_SaIS0_EEESt10_Select1stIS6_ESt4lessIS0_ESaIS6_EE13_Rb_tree_implISA_Lb1EED2Ev
	.type	_ZNSt8_Rb_treeI4nodeSt4pairIKS0_St6vectorIS0_SaIS0_EEESt10_Select1stIS6_ESt4lessIS0_ESaIS6_EE13_Rb_tree_implISA_Lb1EED2Ev, @function
_ZNSt8_Rb_treeI4nodeSt4pairIKS0_St6vectorIS0_SaIS0_EEESt10_Select1stIS6_ESt4lessIS0_ESaIS6_EE13_Rb_tree_implISA_Lb1EED2Ev:
.LFB4146:
	.cfi_startproc
	endbr64
	pushq	%rbp
	.cfi_def_cfa_offset 16
	.cfi_offset 6, -16
	movq	%rsp, %rbp
	.cfi_def_cfa_register 6
	subq	$16, %rsp
	movq	%rdi, -8(%rbp)
	movq	-8(%rbp), %rax
	movq	%rax, %rdi
	call	_ZNSaISt13_Rb_tree_nodeISt4pairIK4nodeSt6vectorIS1_SaIS1_EEEEED2Ev
	nop
	leave
	.cfi_def_cfa 7, 8
	ret
	.cfi_endproc
.LFE4146:
	.size	_ZNSt8_Rb_treeI4nodeSt4pairIKS0_St6vectorIS0_SaIS0_EEESt10_Select1stIS6_ESt4lessIS0_ESaIS6_EE13_Rb_tree_implISA_Lb1EED2Ev, .-_ZNSt8_Rb_treeI4nodeSt4pairIKS0_St6vectorIS0_SaIS0_EEESt10_Select1stIS6_ESt4lessIS0_ESaIS6_EE13_Rb_tree_implISA_Lb1EED2Ev
	.weak	_ZNSt8_Rb_treeI4nodeSt4pairIKS0_St6vectorIS0_SaIS0_EEESt10_Select1stIS6_ESt4lessIS0_ESaIS6_EE13_Rb_tree_implISA_Lb1EED1Ev
	.set	_ZNSt8_Rb_treeI4nodeSt4pairIKS0_St6vectorIS0_SaIS0_EEESt10_Select1stIS6_ESt4lessIS0_ESaIS6_EE13_Rb_tree_implISA_Lb1EED1Ev,_ZNSt8_Rb_treeI4nodeSt4pairIKS0_St6vectorIS0_SaIS0_EEESt10_Select1stIS6_ESt4lessIS0_ESaIS6_EE13_Rb_tree_implISA_Lb1EED2Ev
	.text
	.globl	_Z12RContractionRKSt3mapI4nodeSt6vectorIS0_SaIS0_EESt4lessIS0_ESaISt4pairIKS0_S3_EEE
	.type	_Z12RContractionRKSt3mapI4nodeSt6vectorIS0_SaIS0_EESt4lessIS0_ESaISt4pairIKS0_S3_EEE, @function
_Z12RContractionRKSt3mapI4nodeSt6vectorIS0_SaIS0_EESt4lessIS0_ESaISt4pairIKS0_S3_EEE:
.LFB4124:
	.cfi_startproc
	.cfi_personality 0x9b,DW.ref.__gxx_personality_v0
	.cfi_lsda 0x1b,.LLSDA4124
	endbr64
	pushq	%rbp
	.cfi_def_cfa_offset 16
	.cfi_offset 6, -16
	movq	%rsp, %rbp
	.cfi_def_cfa_register 6
	pushq	%rbx
	subq	$184, %rsp
	.cfi_offset 3, -24
	movq	%rdi, -184(%rbp)
	movq	%rsi, -192(%rbp)
	movq	%fs:40, %rax
	movq	%rax, -24(%rbp)
	xorl	%eax, %eax
	movq	-192(%rbp), %rdx
	movq	-184(%rbp), %rax
	movq	%rdx, %rsi
	movq	%rax, %rdi
.LEHB0:
	call	_ZNSt3mapI4nodeSt6vectorIS0_SaIS0_EESt4lessIS0_ESaISt4pairIKS0_S3_EEEC1ERKSA_
.LEHE0:
	movq	-184(%rbp), %rax
	movq	%rax, %rdi
	call	_ZNKSt3mapI4nodeSt6vectorIS0_SaIS0_EESt4lessIS0_ESaISt4pairIKS0_S3_EEE4sizeEv
	movq	%rax, -128(%rbp)
	jmp	.L50
.L64:
	call	rand@PLT
	movslq	%eax, %rbx
	movq	-184(%rbp), %rax
	movq	%rax, %rdi
	call	_ZNKSt3mapI4nodeSt6vectorIS0_SaIS0_EESt4lessIS0_ESaISt4pairIKS0_S3_EEE4sizeEv
	movq	%rax, %rcx
	movq	%rbx, %rax
	movl	$0, %edx
	divq	%rcx
	movq	%rdx, %rcx
	movq	%rcx, %rax
	movq	%rax, %rbx
	movq	-184(%rbp), %rax
	movq	%rax, %rdi
	call	_ZSt5beginISt3mapI4nodeSt6vectorIS1_SaIS1_EESt4lessIS1_ESaISt4pairIKS1_S4_EEEEDTcldtfp_5beginEERT_
	movq	%rbx, %rsi
	movq	%rax, %rdi
.LEHB1:
	call	_ZSt4nextISt17_Rb_tree_iteratorISt4pairIK4nodeSt6vectorIS2_SaIS2_EEEEET_S9_NSt15iterator_traitsIS9_E15difference_typeE
	movq	%rax, -168(%rbp)
	call	rand@PLT
	movslq	%eax, %rbx
	leaq	-168(%rbp), %rax
	movq	%rax, %rdi
	call	_ZNKSt17_Rb_tree_iteratorISt4pairIK4nodeSt6vectorIS1_SaIS1_EEEEptEv
	addq	$40, %rax
	movq	%rax, %rdi
	call	_ZSt4sizeISt6vectorI4nodeSaIS1_EEEDTcldtfp_4sizeEERKT_
	movq	%rax, %rcx
	movq	%rbx, %rax
	movl	$0, %edx
	divq	%rcx
	movq	%rdx, %rcx
	movq	%rcx, %rax
	movq	%rax, %rbx
	leaq	-168(%rbp), %rax
	movq	%rax, %rdi
	call	_ZNKSt17_Rb_tree_iteratorISt4pairIK4nodeSt6vectorIS1_SaIS1_EEEEptEv
	addq	$40, %rax
	movq	%rax, %rdi
	call	_ZNSt6vectorI4nodeSaIS0_EE5beginEv
	movq	%rax, -144(%rbp)
	leaq	-144(%rbp), %rax
	movq	%rbx, %rsi
	movq	%rax, %rdi
	call	_ZNK9__gnu_cxx17__normal_iteratorIP4nodeSt6vectorIS1_SaIS1_EEEplEl
	movq	%rax, -136(%rbp)
	leaq	-136(%rbp), %rax
	movq	%rax, %rdi
	call	_ZNK9__gnu_cxx17__normal_iteratorIP4nodeSt6vectorIS1_SaIS1_EEEdeEv
	movq	%rax, %rdx
	leaq	-112(%rbp), %rax
	movq	%rdx, %rsi
	movq	%rax, %rdi
	call	_ZN4nodeC1ERKS_
.LEHE1:
	leaq	-112(%rbp), %rdx
	movq	-184(%rbp), %rax
	movq	%rdx, %rsi
	movq	%rax, %rdi
.LEHB2:
	call	_ZNSt3mapI4nodeSt6vectorIS0_SaIS0_EESt4lessIS0_ESaISt4pairIKS0_S3_EEEixERS7_
	movq	%rax, -120(%rbp)
	movq	-120(%rbp), %rax
	movq	%rax, %rdi
	call	_ZNSt6vectorI4nodeSaIS0_EE5beginEv
	movq	%rax, -160(%rbp)
	movq	-120(%rbp), %rax
	movq	%rax, %rdi
	call	_ZNSt6vectorI4nodeSaIS0_EE3endEv
	movq	%rax, -152(%rbp)
	jmp	.L51
.L56:
	leaq	-160(%rbp), %rax
	movq	%rax, %rdi
	call	_ZNK9__gnu_cxx17__normal_iteratorIP4nodeSt6vectorIS1_SaIS1_EEEdeEv
	movq	%rax, %rdx
	leaq	-64(%rbp), %rax
	movq	%rdx, %rsi
	movq	%rax, %rdi
	call	_ZN4nodeC1ERKS_
.LEHE2:
	leaq	-168(%rbp), %rax
	movq	%rax, %rdi
	call	_ZNKSt17_Rb_tree_iteratorISt4pairIK4nodeSt6vectorIS1_SaIS1_EEEEptEv
	movq	%rax, %rdx
	leaq	-64(%rbp), %rax
	movq	%rdx, %rsi
	movq	%rax, %rdi
	call	_ZNK4nodeneERKS_
	testb	%al, %al
	je	.L52
	leaq	-168(%rbp), %rax
	movq	%rax, %rdi
	call	_ZNKSt17_Rb_tree_iteratorISt4pairIK4nodeSt6vectorIS1_SaIS1_EEEEptEv
	leaq	40(%rax), %rdx
	leaq	-64(%rbp), %rax
	movq	%rax, %rsi
	movq	%rdx, %rdi
.LEHB3:
	call	_ZNSt6vectorI4nodeSaIS0_EE9push_backERKS0_
	leaq	-64(%rbp), %rdx
	movq	-184(%rbp), %rax
	movq	%rdx, %rsi
	movq	%rax, %rdi
	call	_ZNSt3mapI4nodeSt6vectorIS0_SaIS0_EESt4lessIS0_ESaISt4pairIKS0_S3_EEEixERS7_
	movq	%rax, %rdi
	call	_ZNSt6vectorI4nodeSaIS0_EE5beginEv
	movq	%rax, -144(%rbp)
	jmp	.L53
.L55:
	leaq	-144(%rbp), %rax
	movq	%rax, %rdi
	call	_ZNK9__gnu_cxx17__normal_iteratorIP4nodeSt6vectorIS1_SaIS1_EEEdeEv
	movq	%rax, %rdx
	leaq	-112(%rbp), %rax
	movq	%rax, %rsi
	movq	%rdx, %rdi
	call	_ZNK4nodeeqERKS_
	testb	%al, %al
	je	.L54
	leaq	-64(%rbp), %rdx
	movq	-184(%rbp), %rax
	movq	%rdx, %rsi
	movq	%rax, %rdi
	call	_ZNSt3mapI4nodeSt6vectorIS0_SaIS0_EESt4lessIS0_ESaISt4pairIKS0_S3_EEEixERS7_
	movq	%rax, %rbx
	leaq	-144(%rbp), %rdx
	leaq	-136(%rbp), %rax
	movq	%rdx, %rsi
	movq	%rax, %rdi
	call	_ZN9__gnu_cxx17__normal_iteratorIPK4nodeSt6vectorIS1_SaIS1_EEEC1IPS1_vEERKNS0_IT_S6_EE
	movq	-136(%rbp), %rax
	movq	%rax, %rsi
	movq	%rbx, %rdi
	call	_ZNSt6vectorI4nodeSaIS0_EE5eraseEN9__gnu_cxx17__normal_iteratorIPKS0_S2_EE
	leaq	-64(%rbp), %rdx
	movq	-184(%rbp), %rax
	movq	%rdx, %rsi
	movq	%rax, %rdi
	call	_ZNSt3mapI4nodeSt6vectorIS0_SaIS0_EESt4lessIS0_ESaISt4pairIKS0_S3_EEEixERS7_
	movq	%rax, %rbx
	leaq	-168(%rbp), %rax
	movq	%rax, %rdi
	call	_ZNKSt17_Rb_tree_iteratorISt4pairIK4nodeSt6vectorIS1_SaIS1_EEEEptEv
	movq	%rax, %rsi
	movq	%rbx, %rdi
	call	_ZNSt6vectorI4nodeSaIS0_EE9push_backERKS0_
.L54:
	leaq	-144(%rbp), %rax
	movq	%rax, %rdi
	call	_ZN9__gnu_cxx17__normal_iteratorIP4nodeSt6vectorIS1_SaIS1_EEEppEv
.L53:
	leaq	-64(%rbp), %rdx
	movq	-184(%rbp), %rax
	movq	%rdx, %rsi
	movq	%rax, %rdi
	call	_ZNSt3mapI4nodeSt6vectorIS0_SaIS0_EESt4lessIS0_ESaISt4pairIKS0_S3_EEEixERS7_
.LEHE3:
	movq	%rax, %rdi
	call	_ZNSt6vectorI4nodeSaIS0_EE3endEv
	movq	%rax, -136(%rbp)
	leaq	-136(%rbp), %rdx
	leaq	-144(%rbp), %rax
	movq	%rdx, %rsi
	movq	%rax, %rdi
	call	_ZN9__gnu_cxxneIP4nodeSt6vectorIS1_SaIS1_EEEEbRKNS_17__normal_iteratorIT_T0_EESB_
	testb	%al, %al
	jne	.L55
.L52:
	leaq	-64(%rbp), %rax
	movq	%rax, %rdi
	call	_ZN4nodeD1Ev
	leaq	-160(%rbp), %rax
	movq	%rax, %rdi
	call	_ZN9__gnu_cxx17__normal_iteratorIP4nodeSt6vectorIS1_SaIS1_EEEppEv
.L51:
	leaq	-152(%rbp), %rdx
	leaq	-160(%rbp), %rax
	movq	%rdx, %rsi
	movq	%rax, %rdi
	call	_ZN9__gnu_cxxneIP4nodeSt6vectorIS1_SaIS1_EEEEbRKNS_17__normal_iteratorIT_T0_EESB_
	testb	%al, %al
	jne	.L56
	leaq	-168(%rbp), %rax
	movq	%rax, %rdi
	call	_ZNKSt17_Rb_tree_iteratorISt4pairIK4nodeSt6vectorIS1_SaIS1_EEEEptEv
	addq	$40, %rax
	movq	%rax, %rdi
	call	_ZNSt6vectorI4nodeSaIS0_EE5beginEv
	movq	%rax, -144(%rbp)
	jmp	.L57
.L59:
	leaq	-144(%rbp), %rax
	movq	%rax, %rdi
	call	_ZNK9__gnu_cxx17__normal_iteratorIP4nodeSt6vectorIS1_SaIS1_EEEdeEv
	movq	%rax, %rdx
	leaq	-112(%rbp), %rax
	movq	%rax, %rsi
	movq	%rdx, %rdi
	call	_ZNK4nodeeqERKS_
	testb	%al, %al
	je	.L58
	leaq	-168(%rbp), %rax
	movq	%rax, %rdi
	call	_ZNKSt17_Rb_tree_iteratorISt4pairIK4nodeSt6vectorIS1_SaIS1_EEEEptEv
	leaq	40(%rax), %rbx
	leaq	-144(%rbp), %rdx
	leaq	-136(%rbp), %rax
	movq	%rdx, %rsi
	movq	%rax, %rdi
	call	_ZN9__gnu_cxx17__normal_iteratorIPK4nodeSt6vectorIS1_SaIS1_EEEC1IPS1_vEERKNS0_IT_S6_EE
	movq	-136(%rbp), %rax
	movq	%rax, %rsi
	movq	%rbx, %rdi
.LEHB4:
	call	_ZNSt6vectorI4nodeSaIS0_EE5eraseEN9__gnu_cxx17__normal_iteratorIPKS0_S2_EE
.L58:
	leaq	-144(%rbp), %rax
	movq	%rax, %rdi
	call	_ZN9__gnu_cxx17__normal_iteratorIP4nodeSt6vectorIS1_SaIS1_EEEppEv
.L57:
	leaq	-168(%rbp), %rax
	movq	%rax, %rdi
	call	_ZNKSt17_Rb_tree_iteratorISt4pairIK4nodeSt6vectorIS1_SaIS1_EEEEptEv
	addq	$40, %rax
	movq	%rax, %rdi
	call	_ZNSt6vectorI4nodeSaIS0_EE3endEv
	movq	%rax, -136(%rbp)
	leaq	-136(%rbp), %rdx
	leaq	-144(%rbp), %rax
	movq	%rdx, %rsi
	movq	%rax, %rdi
	call	_ZN9__gnu_cxxneIP4nodeSt6vectorIS1_SaIS1_EEEEbRKNS_17__normal_iteratorIT_T0_EESB_
	testb	%al, %al
	jne	.L59
	movq	-184(%rbp), %rax
	movq	%rax, %rdi
	call	_ZNSt3mapI4nodeSt6vectorIS0_SaIS0_EESt4lessIS0_ESaISt4pairIKS0_S3_EEE5beginEv
	movq	%rax, -144(%rbp)
	jmp	.L60
.L63:
	leaq	-144(%rbp), %rax
	movq	%rax, %rdi
	call	_ZNKSt17_Rb_tree_iteratorISt4pairIK4nodeSt6vectorIS1_SaIS1_EEEEptEv
	movq	%rax, %rdx
	leaq	-112(%rbp), %rax
	movq	%rax, %rsi
	movq	%rdx, %rdi
	call	_ZNK4nodeeqERKS_
	testb	%al, %al
	je	.L61
	movq	-144(%rbp), %rdx
	movq	-184(%rbp), %rax
	movq	%rdx, %rsi
	movq	%rax, %rdi
	call	_ZNSt3mapI4nodeSt6vectorIS0_SaIS0_EESt4lessIS0_ESaISt4pairIKS0_S3_EEE5eraseB5cxx11ESt17_Rb_tree_iteratorIS8_E
.LEHE4:
	jmp	.L62
.L61:
	leaq	-144(%rbp), %rax
	movq	%rax, %rdi
	call	_ZNSt17_Rb_tree_iteratorISt4pairIK4nodeSt6vectorIS1_SaIS1_EEEEppEv
.L60:
	movq	-184(%rbp), %rax
	movq	%rax, %rdi
	call	_ZNSt3mapI4nodeSt6vectorIS0_SaIS0_EESt4lessIS0_ESaISt4pairIKS0_S3_EEE3endEv
	movq	%rax, -136(%rbp)
	leaq	-136(%rbp), %rdx
	leaq	-144(%rbp), %rax
	movq	%rdx, %rsi
	movq	%rax, %rdi
	call	_ZStneRKSt17_Rb_tree_iteratorISt4pairIK4nodeSt6vectorIS1_SaIS1_EEEES9_
	testb	%al, %al
	jne	.L63
.L62:
	leaq	-112(%rbp), %rax
	movq	%rax, %rdi
	call	_ZN4nodeD1Ev
	movq	-184(%rbp), %rax
	movq	%rax, %rdi
	call	_ZNKSt3mapI4nodeSt6vectorIS0_SaIS0_EESt4lessIS0_ESaISt4pairIKS0_S3_EEE4sizeEv
	movq	%rax, -128(%rbp)
.L50:
	cmpq	$2, -128(%rbp)
	ja	.L64
	jmp	.L73
.L71:
	endbr64
	movq	%rax, %rbx
	leaq	-64(%rbp), %rax
	movq	%rax, %rdi
	call	_ZN4nodeD1Ev
	jmp	.L67
.L72:
	endbr64
	movq	%rax, %rbx
.L67:
	leaq	-112(%rbp), %rax
	movq	%rax, %rdi
	call	_ZN4nodeD1Ev
	jmp	.L68
.L70:
	endbr64
	movq	%rax, %rbx
.L68:
	movq	-184(%rbp), %rax
	movq	%rax, %rdi
	call	_ZNSt3mapI4nodeSt6vectorIS0_SaIS0_EESt4lessIS0_ESaISt4pairIKS0_S3_EEED1Ev
	movq	%rbx, %rax
	movq	%rax, %rdi
.LEHB5:
	call	_Unwind_Resume@PLT
.LEHE5:
.L73:
	movq	-24(%rbp), %rax
	subq	%fs:40, %rax
	je	.L69
	call	__stack_chk_fail@PLT
.L69:
	movq	-184(%rbp), %rax
	movq	-8(%rbp), %rbx
	leave
	.cfi_def_cfa 7, 8
	ret
	.cfi_endproc
.LFE4124:
	.globl	__gxx_personality_v0
	.section	.gcc_except_table,"a",@progbits
.LLSDA4124:
	.byte	0xff
	.byte	0xff
	.byte	0x1
	.uleb128 .LLSDACSE4124-.LLSDACSB4124
.LLSDACSB4124:
	.uleb128 .LEHB0-.LFB4124
	.uleb128 .LEHE0-.LEHB0
	.uleb128 0
	.uleb128 0
	.uleb128 .LEHB1-.LFB4124
	.uleb128 .LEHE1-.LEHB1
	.uleb128 .L70-.LFB4124
	.uleb128 0
	.uleb128 .LEHB2-.LFB4124
	.uleb128 .LEHE2-.LEHB2
	.uleb128 .L72-.LFB4124
	.uleb128 0
	.uleb128 .LEHB3-.LFB4124
	.uleb128 .LEHE3-.LEHB3
	.uleb128 .L71-.LFB4124
	.uleb128 0
	.uleb128 .LEHB4-.LFB4124
	.uleb128 .LEHE4-.LEHB4
	.uleb128 .L72-.LFB4124
	.uleb128 0
	.uleb128 .LEHB5-.LFB4124
	.uleb128 .LEHE5-.LEHB5
	.uleb128 0
	.uleb128 0
.LLSDACSE4124:
	.text
	.size	_Z12RContractionRKSt3mapI4nodeSt6vectorIS0_SaIS0_EESt4lessIS0_ESaISt4pairIKS0_S3_EEE, .-_Z12RContractionRKSt3mapI4nodeSt6vectorIS0_SaIS0_EESt4lessIS0_ESaISt4pairIKS0_S3_EEE
	.section	.text._ZNSt8_Rb_treeI4nodeSt4pairIKS0_St6vectorIS0_SaIS0_EEESt10_Select1stIS6_ESt4lessIS0_ESaIS6_EEC2Ev,"axG",@progbits,_ZNSt8_Rb_treeI4nodeSt4pairIKS0_St6vectorIS0_SaIS0_EEESt10_Select1stIS6_ESt4lessIS0_ESaIS6_EEC5Ev,comdat
	.align 2
	.weak	_ZNSt8_Rb_treeI4nodeSt4pairIKS0_St6vectorIS0_SaIS0_EEESt10_Select1stIS6_ESt4lessIS0_ESaIS6_EEC2Ev
	.type	_ZNSt8_Rb_treeI4nodeSt4pairIKS0_St6vectorIS0_SaIS0_EEESt10_Select1stIS6_ESt4lessIS0_ESaIS6_EEC2Ev, @function
_ZNSt8_Rb_treeI4nodeSt4pairIKS0_St6vectorIS0_SaIS0_EEESt10_Select1stIS6_ESt4lessIS0_ESaIS6_EEC2Ev:
.LFB4156:
	.cfi_startproc
	endbr64
	pushq	%rbp
	.cfi_def_cfa_offset 16
	.cfi_offset 6, -16
	movq	%rsp, %rbp
	.cfi_def_cfa_register 6
	subq	$16, %rsp
	movq	%rdi, -8(%rbp)
	movq	-8(%rbp), %rax
	movq	%rax, %rdi
	call	_ZNSt8_Rb_treeI4nodeSt4pairIKS0_St6vectorIS0_SaIS0_EEESt10_Select1stIS6_ESt4lessIS0_ESaIS6_EE13_Rb_tree_implISA_Lb1EEC1Ev
	nop
	leave
	.cfi_def_cfa 7, 8
	ret
	.cfi_endproc
.LFE4156:
	.size	_ZNSt8_Rb_treeI4nodeSt4pairIKS0_St6vectorIS0_SaIS0_EEESt10_Select1stIS6_ESt4lessIS0_ESaIS6_EEC2Ev, .-_ZNSt8_Rb_treeI4nodeSt4pairIKS0_St6vectorIS0_SaIS0_EEESt10_Select1stIS6_ESt4lessIS0_ESaIS6_EEC2Ev
	.weak	_ZNSt8_Rb_treeI4nodeSt4pairIKS0_St6vectorIS0_SaIS0_EEESt10_Select1stIS6_ESt4lessIS0_ESaIS6_EEC1Ev
	.set	_ZNSt8_Rb_treeI4nodeSt4pairIKS0_St6vectorIS0_SaIS0_EEESt10_Select1stIS6_ESt4lessIS0_ESaIS6_EEC1Ev,_ZNSt8_Rb_treeI4nodeSt4pairIKS0_St6vectorIS0_SaIS0_EEESt10_Select1stIS6_ESt4lessIS0_ESaIS6_EEC2Ev
	.section	.text._ZNSt3mapI4nodeSt6vectorIS0_SaIS0_EESt4lessIS0_ESaISt4pairIKS0_S3_EEEC2Ev,"axG",@progbits,_ZNSt3mapI4nodeSt6vectorIS0_SaIS0_EESt4lessIS0_ESaISt4pairIKS0_S3_EEEC5Ev,comdat
	.align 2
	.weak	_ZNSt3mapI4nodeSt6vectorIS0_SaIS0_EESt4lessIS0_ESaISt4pairIKS0_S3_EEEC2Ev
	.type	_ZNSt3mapI4nodeSt6vectorIS0_SaIS0_EESt4lessIS0_ESaISt4pairIKS0_S3_EEEC2Ev, @function
_ZNSt3mapI4nodeSt6vectorIS0_SaIS0_EESt4lessIS0_ESaISt4pairIKS0_S3_EEEC2Ev:
.LFB4158:
	.cfi_startproc
	endbr64
	pushq	%rbp
	.cfi_def_cfa_offset 16
	.cfi_offset 6, -16
	movq	%rsp, %rbp
	.cfi_def_cfa_register 6
	subq	$16, %rsp
	movq	%rdi, -8(%rbp)
	movq	-8(%rbp), %rax
	movq	%rax, %rdi
	call	_ZNSt8_Rb_treeI4nodeSt4pairIKS0_St6vectorIS0_SaIS0_EEESt10_Select1stIS6_ESt4lessIS0_ESaIS6_EEC1Ev
	nop
	leave
	.cfi_def_cfa 7, 8
	ret
	.cfi_endproc
.LFE4158:
	.size	_ZNSt3mapI4nodeSt6vectorIS0_SaIS0_EESt4lessIS0_ESaISt4pairIKS0_S3_EEEC2Ev, .-_ZNSt3mapI4nodeSt6vectorIS0_SaIS0_EESt4lessIS0_ESaISt4pairIKS0_S3_EEEC2Ev
	.weak	_ZNSt3mapI4nodeSt6vectorIS0_SaIS0_EESt4lessIS0_ESaISt4pairIKS0_S3_EEEC1Ev
	.set	_ZNSt3mapI4nodeSt6vectorIS0_SaIS0_EESt4lessIS0_ESaISt4pairIKS0_S3_EEEC1Ev,_ZNSt3mapI4nodeSt6vectorIS0_SaIS0_EESt4lessIS0_ESaISt4pairIKS0_S3_EEEC2Ev
	.section	.text._ZN9__gnu_cxx14__alloc_traitsISaISt13_Rb_tree_nodeISt4pairIK4nodeSt6vectorIS3_SaIS3_EEEEES9_E15_S_always_equalEv,"axG",@progbits,_ZN9__gnu_cxx14__alloc_traitsISaISt13_Rb_tree_nodeISt4pairIK4nodeSt6vectorIS3_SaIS3_EEEEES9_E15_S_always_equalEv,comdat
	.weak	_ZN9__gnu_cxx14__alloc_traitsISaISt13_Rb_tree_nodeISt4pairIK4nodeSt6vectorIS3_SaIS3_EEEEES9_E15_S_always_equalEv
	.type	_ZN9__gnu_cxx14__alloc_traitsISaISt13_Rb_tree_nodeISt4pairIK4nodeSt6vectorIS3_SaIS3_EEEEES9_E15_S_always_equalEv, @function
_ZN9__gnu_cxx14__alloc_traitsISaISt13_Rb_tree_nodeISt4pairIK4nodeSt6vectorIS3_SaIS3_EEEEES9_E15_S_always_equalEv:
.LFB4162:
	.cfi_startproc
	endbr64
	pushq	%rbp
	.cfi_def_cfa_offset 16
	.cfi_offset 6, -16
	movq	%rsp, %rbp
	.cfi_def_cfa_register 6
	movl	$1, %eax
	popq	%rbp
	.cfi_def_cfa 7, 8
	ret
	.cfi_endproc
.LFE4162:
	.size	_ZN9__gnu_cxx14__alloc_traitsISaISt13_Rb_tree_nodeISt4pairIK4nodeSt6vectorIS3_SaIS3_EEEEES9_E15_S_always_equalEv, .-_ZN9__gnu_cxx14__alloc_traitsISaISt13_Rb_tree_nodeISt4pairIK4nodeSt6vectorIS3_SaIS3_EEEEES9_E15_S_always_equalEv
	.section	.text._ZNSt3mapI4nodeSt6vectorIS0_SaIS0_EESt4lessIS0_ESaISt4pairIKS0_S3_EEEaSEOSA_,"axG",@progbits,_ZNSt3mapI4nodeSt6vectorIS0_SaIS0_EESt4lessIS0_ESaISt4pairIKS0_S3_EEEaSEOSA_,comdat
	.align 2
	.weak	_ZNSt3mapI4nodeSt6vectorIS0_SaIS0_EESt4lessIS0_ESaISt4pairIKS0_S3_EEEaSEOSA_
	.type	_ZNSt3mapI4nodeSt6vectorIS0_SaIS0_EESt4lessIS0_ESaISt4pairIKS0_S3_EEEaSEOSA_, @function
_ZNSt3mapI4nodeSt6vectorIS0_SaIS0_EESt4lessIS0_ESaISt4pairIKS0_S3_EEEaSEOSA_:
.LFB4163:
	.cfi_startproc
	endbr64
	pushq	%rbp
	.cfi_def_cfa_offset 16
	.cfi_offset 6, -16
	movq	%rsp, %rbp
	.cfi_def_cfa_register 6
	subq	$16, %rsp
	movq	%rdi, -8(%rbp)
	movq	%rsi, -16(%rbp)
	movq	-16(%rbp), %rdx
	movq	-8(%rbp), %rax
	movq	%rdx, %rsi
	movq	%rax, %rdi
	call	_ZNSt8_Rb_treeI4nodeSt4pairIKS0_St6vectorIS0_SaIS0_EEESt10_Select1stIS6_ESt4lessIS0_ESaIS6_EEaSEOSC_
	movq	-8(%rbp), %rax
	leave
	.cfi_def_cfa 7, 8
	ret
	.cfi_endproc
.LFE4163:
	.size	_ZNSt3mapI4nodeSt6vectorIS0_SaIS0_EESt4lessIS0_ESaISt4pairIKS0_S3_EEEaSEOSA_, .-_ZNSt3mapI4nodeSt6vectorIS0_SaIS0_EESt4lessIS0_ESaISt4pairIKS0_S3_EEEaSEOSA_
	.section	.text._ZNSt3mapI4nodeSt6vectorIS0_SaIS0_EESt4lessIS0_ESaISt4pairIKS0_S3_EEEaSERKSA_,"axG",@progbits,_ZNSt3mapI4nodeSt6vectorIS0_SaIS0_EESt4lessIS0_ESaISt4pairIKS0_S3_EEEaSERKSA_,comdat
	.align 2
	.weak	_ZNSt3mapI4nodeSt6vectorIS0_SaIS0_EESt4lessIS0_ESaISt4pairIKS0_S3_EEEaSERKSA_
	.type	_ZNSt3mapI4nodeSt6vectorIS0_SaIS0_EESt4lessIS0_ESaISt4pairIKS0_S3_EEEaSERKSA_, @function
_ZNSt3mapI4nodeSt6vectorIS0_SaIS0_EESt4lessIS0_ESaISt4pairIKS0_S3_EEEaSERKSA_:
.LFB4164:
	.cfi_startproc
	endbr64
	pushq	%rbp
	.cfi_def_cfa_offset 16
	.cfi_offset 6, -16
	movq	%rsp, %rbp
	.cfi_def_cfa_register 6
	subq	$16, %rsp
	movq	%rdi, -8(%rbp)
	movq	%rsi, -16(%rbp)
	movq	-16(%rbp), %rdx
	movq	-8(%rbp), %rax
	movq	%rdx, %rsi
	movq	%rax, %rdi
	call	_ZNSt8_Rb_treeI4nodeSt4pairIKS0_St6vectorIS0_SaIS0_EEESt10_Select1stIS6_ESt4lessIS0_ESaIS6_EEaSERKSC_
	movq	-8(%rbp), %rax
	leave
	.cfi_def_cfa 7, 8
	ret
	.cfi_endproc
.LFE4164:
	.size	_ZNSt3mapI4nodeSt6vectorIS0_SaIS0_EESt4lessIS0_ESaISt4pairIKS0_S3_EEEaSERKSA_, .-_ZNSt3mapI4nodeSt6vectorIS0_SaIS0_EESt4lessIS0_ESaISt4pairIKS0_S3_EEEaSERKSA_
	.text
	.globl	_Z6MinCutRKSt3mapI4nodeSt6vectorIS0_SaIS0_EESt4lessIS0_ESaISt4pairIKS0_S3_EEE
	.type	_Z6MinCutRKSt3mapI4nodeSt6vectorIS0_SaIS0_EESt4lessIS0_ESaISt4pairIKS0_S3_EEE, @function
_Z6MinCutRKSt3mapI4nodeSt6vectorIS0_SaIS0_EESt4lessIS0_ESaISt4pairIKS0_S3_EEE:
.LFB4152:
	.cfi_startproc
	.cfi_personality 0x9b,DW.ref.__gxx_personality_v0
	.cfi_lsda 0x1b,.LLSDA4152
	endbr64
	pushq	%rbp
	.cfi_def_cfa_offset 16
	.cfi_offset 6, -16
	movq	%rsp, %rbp
	.cfi_def_cfa_register 6
	pushq	%rbx
	subq	$168, %rsp
	.cfi_offset 3, -24
	movq	%rdi, -152(%rbp)
	movq	%rsi, -160(%rbp)
	movq	%fs:40, %rax
	movq	%rax, -24(%rbp)
	xorl	%eax, %eax
	movq	-160(%rbp), %rax
	movq	%rax, %rdi
	call	_ZSt4sizeISt3mapI4nodeSt6vectorIS1_SaIS1_EESt4lessIS1_ESaISt4pairIKS1_S4_EEEEDTcldtfp_4sizeEERKT_
	movl	$2, %esi
	movq	%rax, %rdi
	call	_ZSt3powImiEN9__gnu_cxx11__promote_2IDTplcvNS1_IT_XsrSt12__is_integerIS2_E7__valueEE6__typeELi0EcvNS1_IT0_XsrS3_IS7_E7__valueEE6__typeELi0EEXsrS3_ISB_E7__valueEE6__typeES2_S7_
	movsd	%xmm0, -168(%rbp)
	movq	-160(%rbp), %rax
	movq	%rax, %rdi
	call	_ZSt4sizeISt3mapI4nodeSt6vectorIS1_SaIS1_EESt4lessIS1_ESaISt4pairIKS1_S4_EEEEDTcldtfp_4sizeEERKT_
	movq	%rax, %rdi
	call	_ZSt3logImEN9__gnu_cxx11__enable_ifIXsrSt12__is_integerIT_E7__valueEdE6__typeES3_
	mulsd	-168(%rbp), %xmm0
	cvttsd2sil	%xmm0, %eax
	movl	%eax, -136(%rbp)
	movq	-152(%rbp), %rax
	movq	%rax, %rdi
	call	_ZNSt3mapI4nodeSt6vectorIS0_SaIS0_EESt4lessIS0_ESaISt4pairIKS0_S3_EEEC1Ev
	movl	$2147483647, -144(%rbp)
	leaq	-128(%rbp), %rax
	movq	%rax, %rdi
	call	_ZNSt3mapI4nodeSt6vectorIS0_SaIS0_EESt4lessIS0_ESaISt4pairIKS0_S3_EEEC1Ev
	movl	$0, -140(%rbp)
	jmp	.L83
.L85:
	leaq	-80(%rbp), %rax
	movq	-160(%rbp), %rdx
	movq	%rdx, %rsi
	movq	%rax, %rdi
.LEHB6:
	call	_Z12RContractionRKSt3mapI4nodeSt6vectorIS0_SaIS0_EESt4lessIS0_ESaISt4pairIKS0_S3_EEE
	leaq	-80(%rbp), %rdx
	leaq	-128(%rbp), %rax
	movq	%rdx, %rsi
	movq	%rax, %rdi
	call	_ZNSt3mapI4nodeSt6vectorIS0_SaIS0_EESt4lessIS0_ESaISt4pairIKS0_S3_EEEaSEOSA_
	leaq	-80(%rbp), %rax
	movq	%rax, %rdi
	call	_ZNSt3mapI4nodeSt6vectorIS0_SaIS0_EESt4lessIS0_ESaISt4pairIKS0_S3_EEED1Ev
	leaq	-128(%rbp), %rax
	movq	%rax, %rdi
	call	_ZNSt3mapI4nodeSt6vectorIS0_SaIS0_EESt4lessIS0_ESaISt4pairIKS0_S3_EEE5beginEv
	movq	%rax, -80(%rbp)
	leaq	-80(%rbp), %rax
	movq	%rax, %rdi
	call	_ZNKSt17_Rb_tree_iteratorISt4pairIK4nodeSt6vectorIS1_SaIS1_EEEEptEv
	addq	$40, %rax
	movq	%rax, %rdi
	call	_ZSt4sizeISt6vectorI4nodeSaIS1_EEEDTcldtfp_4sizeEERKT_
	movl	%eax, -132(%rbp)
	movl	-132(%rbp), %eax
	cmpl	-144(%rbp), %eax
	jge	.L84
	movl	-132(%rbp), %eax
	movl	%eax, -144(%rbp)
	leaq	-128(%rbp), %rdx
	movq	-152(%rbp), %rax
	movq	%rdx, %rsi
	movq	%rax, %rdi
	call	_ZNSt3mapI4nodeSt6vectorIS0_SaIS0_EESt4lessIS0_ESaISt4pairIKS0_S3_EEEaSERKSA_
.LEHE6:
.L84:
	addl	$1, -140(%rbp)
.L83:
	movl	-140(%rbp), %eax
	cmpl	-136(%rbp), %eax
	jl	.L85
	nop
	leaq	-128(%rbp), %rax
	movq	%rax, %rdi
	call	_ZNSt3mapI4nodeSt6vectorIS0_SaIS0_EESt4lessIS0_ESaISt4pairIKS0_S3_EEED1Ev
	nop
	movq	-24(%rbp), %rax
	subq	%fs:40, %rax
	je	.L88
	jmp	.L90
.L89:
	endbr64
	movq	%rax, %rbx
	leaq	-128(%rbp), %rax
	movq	%rax, %rdi
	call	_ZNSt3mapI4nodeSt6vectorIS0_SaIS0_EESt4lessIS0_ESaISt4pairIKS0_S3_EEED1Ev
	movq	-152(%rbp), %rax
	movq	%rax, %rdi
	call	_ZNSt3mapI4nodeSt6vectorIS0_SaIS0_EESt4lessIS0_ESaISt4pairIKS0_S3_EEED1Ev
	movq	%rbx, %rax
	movq	%rax, %rdi
.LEHB7:
	call	_Unwind_Resume@PLT
.LEHE7:
.L90:
	call	__stack_chk_fail@PLT
.L88:
	movq	-152(%rbp), %rax
	movq	-8(%rbp), %rbx
	leave
	.cfi_def_cfa 7, 8
	ret
	.cfi_endproc
.LFE4152:
	.section	.gcc_except_table
.LLSDA4152:
	.byte	0xff
	.byte	0xff
	.byte	0x1
	.uleb128 .LLSDACSE4152-.LLSDACSB4152
.LLSDACSB4152:
	.uleb128 .LEHB6-.LFB4152
	.uleb128 .LEHE6-.LEHB6
	.uleb128 .L89-.LFB4152
	.uleb128 0
	.uleb128 .LEHB7-.LFB4152
	.uleb128 .LEHE7-.LEHB7
	.uleb128 0
	.uleb128 0
.LLSDACSE4152:
	.text
	.size	_Z6MinCutRKSt3mapI4nodeSt6vectorIS0_SaIS0_EESt4lessIS0_ESaISt4pairIKS0_S3_EEE, .-_Z6MinCutRKSt3mapI4nodeSt6vectorIS0_SaIS0_EESt4lessIS0_ESaISt4pairIKS0_S3_EEE
	.globl	_Z9BusquedaARSt3mapIP5node2St6vectorIS1_SaIS1_EESt4lessIS1_ESaISt4pairIKS1_S4_EEERS0_
	.type	_Z9BusquedaARSt3mapIP5node2St6vectorIS1_SaIS1_EESt4lessIS1_ESaISt4pairIKS1_S4_EEERS0_, @function
_Z9BusquedaARSt3mapIP5node2St6vectorIS1_SaIS1_EESt4lessIS1_ESaISt4pairIKS1_S4_EEERS0_:
.LFB4165:
	.cfi_startproc
	.cfi_personality 0x9b,DW.ref.__gxx_personality_v0
	.cfi_lsda 0x1b,.LLSDA4165
	endbr64
	pushq	%rbp
	.cfi_def_cfa_offset 16
	.cfi_offset 6, -16
	movq	%rsp, %rbp
	.cfi_def_cfa_register 6
	pushq	%r13
	pushq	%r12
	pushq	%rbx
	subq	$168, %rsp
	.cfi_offset 13, -24
	.cfi_offset 12, -32
	.cfi_offset 3, -40
	movq	%rdi, -184(%rbp)
	movq	%rsi, -192(%rbp)
	movq	%fs:40, %rax
	movq	%rax, -40(%rbp)
	xorl	%eax, %eax
	movq	-192(%rbp), %rax
	movq	%rax, -48(%rbp)
	leaq	-48(%rbp), %rax
	movq	%rax, %r12
	movl	$1, %r13d
	leaq	-144(%rbp), %rax
	movq	%rax, %rdi
	call	_ZNSaIP5node2EC1Ev
	leaq	-144(%rbp), %rdx
	movq	%r12, %rsi
	movq	%r13, %rdi
	movq	%r12, %rcx
	movq	%r13, %rbx
	movq	%rbx, %rdi
	leaq	-128(%rbp), %rax
	movq	%rdx, %rcx
	movq	%rdi, %rdx
	movq	%rax, %rdi
.LEHB8:
	call	_ZNSt5dequeIP5node2SaIS1_EEC1ESt16initializer_listIS1_ERKS2_
.LEHE8:
	leaq	-144(%rbp), %rax
	movq	%rax, %rdi
	call	_ZNSaIP5node2ED1Ev
	jmp	.L92
.L96:
	leaq	-128(%rbp), %rax
	movq	%rax, %rdi
	call	_ZNSt5dequeIP5node2SaIS1_EE5frontEv
	movq	(%rax), %rax
	movq	%rax, -168(%rbp)
	leaq	-128(%rbp), %rax
	movq	%rax, %rdi
	call	_ZNSt5dequeIP5node2SaIS1_EE9pop_frontEv
	leaq	-168(%rbp), %rdx
	movq	-184(%rbp), %rax
	movq	%rdx, %rsi
	movq	%rax, %rdi
.LEHB9:
	call	_ZNSt3mapIP5node2St6vectorIS1_SaIS1_EESt4lessIS1_ESaISt4pairIKS1_S4_EEEixERS8_
	movq	%rax, -136(%rbp)
	movq	-136(%rbp), %rax
	movq	%rax, %rdi
	call	_ZNSt6vectorIP5node2SaIS1_EE5beginEv
	movq	%rax, -152(%rbp)
	movq	-136(%rbp), %rax
	movq	%rax, %rdi
	call	_ZNSt6vectorIP5node2SaIS1_EE3endEv
	movq	%rax, -144(%rbp)
	jmp	.L93
.L95:
	leaq	-152(%rbp), %rax
	movq	%rax, %rdi
	call	_ZNK9__gnu_cxx17__normal_iteratorIPP5node2St6vectorIS2_SaIS2_EEEdeEv
	movq	(%rax), %rax
	movq	%rax, -160(%rbp)
	movq	-160(%rbp), %rax
	movzbl	32(%rax), %eax
	xorl	$1, %eax
	testb	%al, %al
	je	.L94
	movq	-160(%rbp), %rax
	movb	$1, 32(%rax)
	leaq	-160(%rbp), %rdx
	leaq	-128(%rbp), %rax
	movq	%rdx, %rsi
	movq	%rax, %rdi
	call	_ZNSt5dequeIP5node2SaIS1_EE10push_frontERKS1_
.LEHE9:
.L94:
	leaq	-152(%rbp), %rax
	movq	%rax, %rdi
	call	_ZN9__gnu_cxx17__normal_iteratorIPP5node2St6vectorIS2_SaIS2_EEEppEv
.L93:
	leaq	-144(%rbp), %rdx
	leaq	-152(%rbp), %rax
	movq	%rdx, %rsi
	movq	%rax, %rdi
	call	_ZN9__gnu_cxxneIPP5node2St6vectorIS2_SaIS2_EEEEbRKNS_17__normal_iteratorIT_T0_EESC_
	testb	%al, %al
	jne	.L95
.L92:
	leaq	-128(%rbp), %rax
	movq	%rax, %rdi
	call	_ZNKSt5dequeIP5node2SaIS1_EE5emptyEv
	xorl	$1, %eax
	testb	%al, %al
	jne	.L96
	nop
	leaq	-128(%rbp), %rax
	movq	%rax, %rdi
	call	_ZNSt5dequeIP5node2SaIS1_EED1Ev
	nop
	movq	-40(%rbp), %rax
	subq	%fs:40, %rax
	je	.L100
	jmp	.L103
.L101:
	endbr64
	movq	%rax, %rbx
	leaq	-144(%rbp), %rax
	movq	%rax, %rdi
	call	_ZNSaIP5node2ED1Ev
	movq	%rbx, %rax
	movq	%rax, %rdi
.LEHB10:
	call	_Unwind_Resume@PLT
.L102:
	endbr64
	movq	%rax, %rbx
	leaq	-128(%rbp), %rax
	movq	%rax, %rdi
	call	_ZNSt5dequeIP5node2SaIS1_EED1Ev
	movq	%rbx, %rax
	movq	%rax, %rdi
	call	_Unwind_Resume@PLT
.LEHE10:
.L103:
	call	__stack_chk_fail@PLT
.L100:
	addq	$168, %rsp
	popq	%rbx
	popq	%r12
	popq	%r13
	popq	%rbp
	.cfi_def_cfa 7, 8
	ret
	.cfi_endproc
.LFE4165:
	.section	.gcc_except_table
.LLSDA4165:
	.byte	0xff
	.byte	0xff
	.byte	0x1
	.uleb128 .LLSDACSE4165-.LLSDACSB4165
.LLSDACSB4165:
	.uleb128 .LEHB8-.LFB4165
	.uleb128 .LEHE8-.LEHB8
	.uleb128 .L101-.LFB4165
	.uleb128 0
	.uleb128 .LEHB9-.LFB4165
	.uleb128 .LEHE9-.LEHB9
	.uleb128 .L102-.LFB4165
	.uleb128 0
	.uleb128 .LEHB10-.LFB4165
	.uleb128 .LEHE10-.LEHB10
	.uleb128 0
	.uleb128 0
.LLSDACSE4165:
	.text
	.size	_Z9BusquedaARSt3mapIP5node2St6vectorIS1_SaIS1_EESt4lessIS1_ESaISt4pairIKS1_S4_EEERS0_, .-_Z9BusquedaARSt3mapIP5node2St6vectorIS1_SaIS1_EESt4lessIS1_ESaISt4pairIKS1_S4_EEERS0_
	.globl	_Z14__UnaBusquedaPRSt3mapIP5node2St6vectorIS1_SaIS1_EESt4lessIS1_ESaISt4pairIKS1_S4_EEES1_
	.type	_Z14__UnaBusquedaPRSt3mapIP5node2St6vectorIS1_SaIS1_EESt4lessIS1_ESaISt4pairIKS1_S4_EEES1_, @function
_Z14__UnaBusquedaPRSt3mapIP5node2St6vectorIS1_SaIS1_EESt4lessIS1_ESaISt4pairIKS1_S4_EEES1_:
.LFB4166:
	.cfi_startproc
	endbr64
	pushq	%rbp
	.cfi_def_cfa_offset 16
	.cfi_offset 6, -16
	movq	%rsp, %rbp
	.cfi_def_cfa_register 6
	subq	$64, %rsp
	movq	%rdi, -56(%rbp)
	movq	%rsi, -64(%rbp)
	movq	%fs:40, %rax
	movq	%rax, -8(%rbp)
	xorl	%eax, %eax
	movq	-64(%rbp), %rax
	movb	$1, 32(%rax)
	leaq	-64(%rbp), %rdx
	movq	-56(%rbp), %rax
	movq	%rdx, %rsi
	movq	%rax, %rdi
	call	_ZNSt3mapIP5node2St6vectorIS1_SaIS1_EESt4lessIS1_ESaISt4pairIKS1_S4_EEEixERS8_
	movq	%rax, -24(%rbp)
	movq	-24(%rbp), %rax
	movq	%rax, %rdi
	call	_ZNSt6vectorIP5node2SaIS1_EE5beginEv
	movq	%rax, -40(%rbp)
	movq	-24(%rbp), %rax
	movq	%rax, %rdi
	call	_ZNSt6vectorIP5node2SaIS1_EE3endEv
	movq	%rax, -32(%rbp)
	jmp	.L105
.L107:
	leaq	-40(%rbp), %rax
	movq	%rax, %rdi
	call	_ZNK9__gnu_cxx17__normal_iteratorIPP5node2St6vectorIS2_SaIS2_EEEdeEv
	movq	(%rax), %rax
	movq	%rax, -16(%rbp)
	movq	-16(%rbp), %rax
	movzbl	32(%rax), %eax
	xorl	$1, %eax
	testb	%al, %al
	je	.L106
	movq	-16(%rbp), %rdx
	movq	-56(%rbp), %rax
	movq	%rdx, %rsi
	movq	%rax, %rdi
	call	_Z14__UnaBusquedaPRSt3mapIP5node2St6vectorIS1_SaIS1_EESt4lessIS1_ESaISt4pairIKS1_S4_EEES1_
.L106:
	leaq	-40(%rbp), %rax
	movq	%rax, %rdi
	call	_ZN9__gnu_cxx17__normal_iteratorIPP5node2St6vectorIS2_SaIS2_EEEppEv
.L105:
	leaq	-32(%rbp), %rdx
	leaq	-40(%rbp), %rax
	movq	%rdx, %rsi
	movq	%rax, %rdi
	call	_ZN9__gnu_cxxneIPP5node2St6vectorIS2_SaIS2_EEEEbRKNS_17__normal_iteratorIT_T0_EESC_
	testb	%al, %al
	jne	.L107
	nop
	movq	-8(%rbp), %rax
	subq	%fs:40, %rax
	je	.L109
	call	__stack_chk_fail@PLT
.L109:
	leave
	.cfi_def_cfa 7, 8
	ret
	.cfi_endproc
.LFE4166:
	.size	_Z14__UnaBusquedaPRSt3mapIP5node2St6vectorIS1_SaIS1_EESt4lessIS1_ESaISt4pairIKS1_S4_EEES1_, .-_Z14__UnaBusquedaPRSt3mapIP5node2St6vectorIS1_SaIS1_EESt4lessIS1_ESaISt4pairIKS1_S4_EEES1_
	.section	.text._ZNSt4pairIKP5node2St6vectorIS1_SaIS1_EEEC2ERKS6_,"axG",@progbits,_ZNSt4pairIKP5node2St6vectorIS1_SaIS1_EEEC5ERKS6_,comdat
	.align 2
	.weak	_ZNSt4pairIKP5node2St6vectorIS1_SaIS1_EEEC2ERKS6_
	.type	_ZNSt4pairIKP5node2St6vectorIS1_SaIS1_EEEC2ERKS6_, @function
_ZNSt4pairIKP5node2St6vectorIS1_SaIS1_EEEC2ERKS6_:
.LFB4174:
	.cfi_startproc
	endbr64
	pushq	%rbp
	.cfi_def_cfa_offset 16
	.cfi_offset 6, -16
	movq	%rsp, %rbp
	.cfi_def_cfa_register 6
	subq	$16, %rsp
	movq	%rdi, -8(%rbp)
	movq	%rsi, -16(%rbp)
	movq	-16(%rbp), %rax
	movq	(%rax), %rdx
	movq	-8(%rbp), %rax
	movq	%rdx, (%rax)
	movq	-8(%rbp), %rax
	addq	$8, %rax
	movq	-16(%rbp), %rdx
	addq	$8, %rdx
	movq	%rdx, %rsi
	movq	%rax, %rdi
	call	_ZNSt6vectorIP5node2SaIS1_EEC1ERKS3_
	nop
	leave
	.cfi_def_cfa 7, 8
	ret
	.cfi_endproc
.LFE4174:
	.size	_ZNSt4pairIKP5node2St6vectorIS1_SaIS1_EEEC2ERKS6_, .-_ZNSt4pairIKP5node2St6vectorIS1_SaIS1_EEEC2ERKS6_
	.weak	_ZNSt4pairIKP5node2St6vectorIS1_SaIS1_EEEC1ERKS6_
	.set	_ZNSt4pairIKP5node2St6vectorIS1_SaIS1_EEEC1ERKS6_,_ZNSt4pairIKP5node2St6vectorIS1_SaIS1_EEEC2ERKS6_
	.section	.text._ZNSt4pairIKP5node2St6vectorIS1_SaIS1_EEED2Ev,"axG",@progbits,_ZNSt4pairIKP5node2St6vectorIS1_SaIS1_EEED5Ev,comdat
	.align 2
	.weak	_ZNSt4pairIKP5node2St6vectorIS1_SaIS1_EEED2Ev
	.type	_ZNSt4pairIKP5node2St6vectorIS1_SaIS1_EEED2Ev, @function
_ZNSt4pairIKP5node2St6vectorIS1_SaIS1_EEED2Ev:
.LFB4177:
	.cfi_startproc
	endbr64
	pushq	%rbp
	.cfi_def_cfa_offset 16
	.cfi_offset 6, -16
	movq	%rsp, %rbp
	.cfi_def_cfa_register 6
	subq	$16, %rsp
	movq	%rdi, -8(%rbp)
	movq	-8(%rbp), %rax
	addq	$8, %rax
	movq	%rax, %rdi
	call	_ZNSt6vectorIP5node2SaIS1_EED1Ev
	nop
	leave
	.cfi_def_cfa 7, 8
	ret
	.cfi_endproc
.LFE4177:
	.size	_ZNSt4pairIKP5node2St6vectorIS1_SaIS1_EEED2Ev, .-_ZNSt4pairIKP5node2St6vectorIS1_SaIS1_EEED2Ev
	.weak	_ZNSt4pairIKP5node2St6vectorIS1_SaIS1_EEED1Ev
	.set	_ZNSt4pairIKP5node2St6vectorIS1_SaIS1_EEED1Ev,_ZNSt4pairIKP5node2St6vectorIS1_SaIS1_EEED2Ev
	.text
	.globl	_Z9BusquedaPRSt3mapIP5node2St6vectorIS1_SaIS1_EESt4lessIS1_ESaISt4pairIKS1_S4_EEE
	.type	_Z9BusquedaPRSt3mapIP5node2St6vectorIS1_SaIS1_EESt4lessIS1_ESaISt4pairIKS1_S4_EEE, @function
_Z9BusquedaPRSt3mapIP5node2St6vectorIS1_SaIS1_EESt4lessIS1_ESaISt4pairIKS1_S4_EEE:
.LFB4168:
	.cfi_startproc
	.cfi_personality 0x9b,DW.ref.__gxx_personality_v0
	.cfi_lsda 0x1b,.LLSDA4168
	endbr64
	pushq	%rbp
	.cfi_def_cfa_offset 16
	.cfi_offset 6, -16
	movq	%rsp, %rbp
	.cfi_def_cfa_register 6
	pushq	%rbx
	subq	$120, %rsp
	.cfi_offset 3, -24
	movq	%rdi, -120(%rbp)
	movq	%fs:40, %rax
	movq	%rax, -24(%rbp)
	xorl	%eax, %eax
	movq	-120(%rbp), %rax
	movq	%rax, -88(%rbp)
	movq	-88(%rbp), %rax
	movq	%rax, %rdi
	call	_ZNSt3mapIP5node2St6vectorIS1_SaIS1_EESt4lessIS1_ESaISt4pairIKS1_S4_EEE5beginEv
	movq	%rax, -104(%rbp)
	movq	-88(%rbp), %rax
	movq	%rax, %rdi
	call	_ZNSt3mapIP5node2St6vectorIS1_SaIS1_EESt4lessIS1_ESaISt4pairIKS1_S4_EEE3endEv
	movq	%rax, -96(%rbp)
	jmp	.L113
.L114:
	leaq	-104(%rbp), %rax
	movq	%rax, %rdi
	call	_ZNKSt17_Rb_tree_iteratorISt4pairIKP5node2St6vectorIS2_SaIS2_EEEEdeEv
	movq	%rax, %rdx
	leaq	-64(%rbp), %rax
	movq	%rdx, %rsi
	movq	%rax, %rdi
.LEHB11:
	call	_ZNSt4pairIKP5node2St6vectorIS1_SaIS1_EEEC1ERKS6_
	movq	-64(%rbp), %rax
	movb	$0, 32(%rax)
	leaq	-64(%rbp), %rax
	movq	%rax, %rdi
	call	_ZNSt4pairIKP5node2St6vectorIS1_SaIS1_EEED1Ev
	leaq	-104(%rbp), %rax
	movq	%rax, %rdi
	call	_ZNSt17_Rb_tree_iteratorISt4pairIKP5node2St6vectorIS2_SaIS2_EEEEppEv
.L113:
	leaq	-96(%rbp), %rdx
	leaq	-104(%rbp), %rax
	movq	%rdx, %rsi
	movq	%rax, %rdi
	call	_ZStneRKSt17_Rb_tree_iteratorISt4pairIKP5node2St6vectorIS2_SaIS2_EEEESA_
	testb	%al, %al
	jne	.L114
	movq	-120(%rbp), %rax
	movq	%rax, %rdi
	call	_ZSt4sizeISt3mapIP5node2St6vectorIS2_SaIS2_EESt4lessIS2_ESaISt4pairIKS2_S5_EEEEDTcldtfp_4sizeEERKT_
	movq	%rax, -80(%rbp)
	movq	-120(%rbp), %rax
	movq	%rax, -72(%rbp)
	movq	-72(%rbp), %rax
	movq	%rax, %rdi
	call	_ZNSt3mapIP5node2St6vectorIS1_SaIS1_EESt4lessIS1_ESaISt4pairIKS1_S4_EEE5beginEv
	movq	%rax, -104(%rbp)
	movq	-72(%rbp), %rax
	movq	%rax, %rdi
	call	_ZNSt3mapIP5node2St6vectorIS1_SaIS1_EESt4lessIS1_ESaISt4pairIKS1_S4_EEE3endEv
	movq	%rax, -96(%rbp)
	jmp	.L115
.L117:
	leaq	-104(%rbp), %rax
	movq	%rax, %rdi
	call	_ZNKSt17_Rb_tree_iteratorISt4pairIKP5node2St6vectorIS2_SaIS2_EEEEdeEv
	movq	%rax, %rdx
	leaq	-64(%rbp), %rax
	movq	%rdx, %rsi
	movq	%rax, %rdi
	call	_ZNSt4pairIKP5node2St6vectorIS1_SaIS1_EEEC1ERKS6_
.LEHE11:
	movq	-64(%rbp), %rax
	movzbl	32(%rax), %eax
	xorl	$1, %eax
	testb	%al, %al
	je	.L116
	movq	-64(%rbp), %rdx
	movq	-120(%rbp), %rax
	movq	%rdx, %rsi
	movq	%rax, %rdi
.LEHB12:
	call	_Z14__UnaBusquedaPRSt3mapIP5node2St6vectorIS1_SaIS1_EESt4lessIS1_ESaISt4pairIKS1_S4_EEES1_
.LEHE12:
.L116:
	leaq	-64(%rbp), %rax
	movq	%rax, %rdi
	call	_ZNSt4pairIKP5node2St6vectorIS1_SaIS1_EEED1Ev
	leaq	-104(%rbp), %rax
	movq	%rax, %rdi
	call	_ZNSt17_Rb_tree_iteratorISt4pairIKP5node2St6vectorIS2_SaIS2_EEEEppEv
.L115:
	leaq	-96(%rbp), %rdx
	leaq	-104(%rbp), %rax
	movq	%rdx, %rsi
	movq	%rax, %rdi
	call	_ZStneRKSt17_Rb_tree_iteratorISt4pairIKP5node2St6vectorIS2_SaIS2_EEEESA_
	testb	%al, %al
	jne	.L117
	jmp	.L122
.L121:
	endbr64
	movq	%rax, %rbx
	leaq	-64(%rbp), %rax
	movq	%rax, %rdi
	call	_ZNSt4pairIKP5node2St6vectorIS1_SaIS1_EEED1Ev
	movq	%rbx, %rax
	movq	%rax, %rdi
.LEHB13:
	call	_Unwind_Resume@PLT
.LEHE13:
.L122:
	movq	-24(%rbp), %rax
	subq	%fs:40, %rax
	je	.L120
	call	__stack_chk_fail@PLT
.L120:
	movq	-8(%rbp), %rbx
	leave
	.cfi_def_cfa 7, 8
	ret
	.cfi_endproc
.LFE4168:
	.section	.gcc_except_table
.LLSDA4168:
	.byte	0xff
	.byte	0xff
	.byte	0x1
	.uleb128 .LLSDACSE4168-.LLSDACSB4168
.LLSDACSB4168:
	.uleb128 .LEHB11-.LFB4168
	.uleb128 .LEHE11-.LEHB11
	.uleb128 0
	.uleb128 0
	.uleb128 .LEHB12-.LFB4168
	.uleb128 .LEHE12-.LEHB12
	.uleb128 .L121-.LFB4168
	.uleb128 0
	.uleb128 .LEHB13-.LFB4168
	.uleb128 .LEHE13-.LEHB13
	.uleb128 0
	.uleb128 0
.LLSDACSE4168:
	.text
	.size	_Z9BusquedaPRSt3mapIP5node2St6vectorIS1_SaIS1_EESt4lessIS1_ESaISt4pairIKS1_S4_EEE, .-_Z9BusquedaPRSt3mapIP5node2St6vectorIS1_SaIS1_EESt4lessIS1_ESaISt4pairIKS1_S4_EEE
	.section	.text._ZNSt4pairIiNSt7__cxx1112basic_stringIcSt11char_traitsIcESaIcEEEED2Ev,"axG",@progbits,_ZNSt4pairIiNSt7__cxx1112basic_stringIcSt11char_traitsIcESaIcEEEED5Ev,comdat
	.align 2
	.weak	_ZNSt4pairIiNSt7__cxx1112basic_stringIcSt11char_traitsIcESaIcEEEED2Ev
	.type	_ZNSt4pairIiNSt7__cxx1112basic_stringIcSt11char_traitsIcESaIcEEEED2Ev, @function
_ZNSt4pairIiNSt7__cxx1112basic_stringIcSt11char_traitsIcESaIcEEEED2Ev:
.LFB4202:
	.cfi_startproc
	endbr64
	pushq	%rbp
	.cfi_def_cfa_offset 16
	.cfi_offset 6, -16
	movq	%rsp, %rbp
	.cfi_def_cfa_register 6
	subq	$16, %rsp
	movq	%rdi, -8(%rbp)
	movq	-8(%rbp), %rax
	addq	$8, %rax
	movq	%rax, %rdi
	call	_ZNSt7__cxx1112basic_stringIcSt11char_traitsIcESaIcEED1Ev@PLT
	nop
	leave
	.cfi_def_cfa 7, 8
	ret
	.cfi_endproc
.LFE4202:
	.size	_ZNSt4pairIiNSt7__cxx1112basic_stringIcSt11char_traitsIcESaIcEEEED2Ev, .-_ZNSt4pairIiNSt7__cxx1112basic_stringIcSt11char_traitsIcESaIcEEEED2Ev
	.weak	_ZNSt4pairIiNSt7__cxx1112basic_stringIcSt11char_traitsIcESaIcEEEED1Ev
	.set	_ZNSt4pairIiNSt7__cxx1112basic_stringIcSt11char_traitsIcESaIcEEEED1Ev,_ZNSt4pairIiNSt7__cxx1112basic_stringIcSt11char_traitsIcESaIcEEEED2Ev
	.section	.text._ZN6BSTreeINSt7__cxx1112basic_stringIcSt11char_traitsIcESaIcEEEE6BSNodeD2Ev,"axG",@progbits,_ZN6BSTreeINSt7__cxx1112basic_stringIcSt11char_traitsIcESaIcEEEE6BSNodeD5Ev,comdat
	.align 2
	.weak	_ZN6BSTreeINSt7__cxx1112basic_stringIcSt11char_traitsIcESaIcEEEE6BSNodeD2Ev
	.type	_ZN6BSTreeINSt7__cxx1112basic_stringIcSt11char_traitsIcESaIcEEEE6BSNodeD2Ev, @function
_ZN6BSTreeINSt7__cxx1112basic_stringIcSt11char_traitsIcESaIcEEEE6BSNodeD2Ev:
.LFB4207:
	.cfi_startproc
	endbr64
	pushq	%rbp
	.cfi_def_cfa_offset 16
	.cfi_offset 6, -16
	movq	%rsp, %rbp
	.cfi_def_cfa_register 6
	subq	$16, %rsp
	movq	%rdi, -8(%rbp)
	movq	-8(%rbp), %rax
	addq	$8, %rax
	movq	%rax, %rdi
	call	_ZNSt7__cxx1112basic_stringIcSt11char_traitsIcESaIcEED1Ev@PLT
	nop
	leave
	.cfi_def_cfa 7, 8
	ret
	.cfi_endproc
.LFE4207:
	.size	_ZN6BSTreeINSt7__cxx1112basic_stringIcSt11char_traitsIcESaIcEEEE6BSNodeD2Ev, .-_ZN6BSTreeINSt7__cxx1112basic_stringIcSt11char_traitsIcESaIcEEEE6BSNodeD2Ev
	.weak	_ZN6BSTreeINSt7__cxx1112basic_stringIcSt11char_traitsIcESaIcEEEE6BSNodeD1Ev
	.set	_ZN6BSTreeINSt7__cxx1112basic_stringIcSt11char_traitsIcESaIcEEEE6BSNodeD1Ev,_ZN6BSTreeINSt7__cxx1112basic_stringIcSt11char_traitsIcESaIcEEEE6BSNodeD2Ev
	.section	.rodata
.LC0:
	.string	"perro"
.LC1:
	.string	"gato"
	.text
	.globl	main
	.type	main, @function
main:
.LFB4191:
	.cfi_startproc
	.cfi_personality 0x9b,DW.ref.__gxx_personality_v0
	.cfi_lsda 0x1b,.LLSDA4191
	endbr64
	pushq	%rbp
	.cfi_def_cfa_offset 16
	.cfi_offset 6, -16
	movq	%rsp, %rbp
	.cfi_def_cfa_register 6
	pushq	%r13
	pushq	%r12
	pushq	%rbx
	subq	$264, %rsp
	.cfi_offset 13, -24
	.cfi_offset 12, -32
	.cfi_offset 3, -40
	movq	%fs:40, %rax
	movq	%rax, -40(%rbp)
	xorl	%eax, %eax
	movl	$5, -112(%rbp)
	movl	$4, -108(%rbp)
	movl	$1, -104(%rbp)
	movl	$8, -100(%rbp)
	movl	$7, -96(%rbp)
	movl	$2, -92(%rbp)
	movl	$6, -88(%rbp)
	movl	$3, -84(%rbp)
	movl	$9, -80(%rbp)
	leaq	-112(%rbp), %rax
	movq	%rax, %r12
	movl	$9, %r13d
	leaq	-192(%rbp), %rax
	movq	%rax, %rdi
	call	_ZNSaIiEC1Ev
	leaq	-192(%rbp), %rdx
	movq	%r12, %rsi
	movq	%r13, %rdi
	movq	%r12, %rcx
	movq	%r13, %rbx
	movq	%rbx, %rdi
	leaq	-272(%rbp), %rax
	movq	%rdx, %rcx
	movq	%rdi, %rdx
	movq	%rax, %rdi
.LEHB14:
	call	_ZNSt6vectorIiSaIiEEC1ESt16initializer_listIiERKS0_
.LEHE14:
	leaq	-192(%rbp), %rax
	movq	%rax, %rdi
	call	_ZNSaIiED1Ev
	leaq	-272(%rbp), %rax
	movq	%rax, %rdi
	call	_ZNSt6vectorIiSaIiEE3endEv
	movq	%rax, %rbx
	leaq	-272(%rbp), %rax
	movq	%rax, %rdi
	call	_ZNSt6vectorIiSaIiEE5beginEv
	movq	%rax, %rcx
	leaq	-272(%rbp), %rax
	movq	%rbx, %rdx
	movq	%rcx, %rsi
	movq	%rax, %rdi
.LEHB15:
	call	_Z9QuickSortIiEvRSt6vectorIT_SaIS1_EENS3_8iteratorES5_
.LEHE15:
	leaq	-240(%rbp), %rax
	movq	%rax, %rdi
	call	_ZNSt3mapI4nodeSt6vectorIS0_SaIS0_EESt4lessIS0_ESaISt4pairIKS0_S3_EEEC1Ev
	leaq	-192(%rbp), %rax
	leaq	-240(%rbp), %rdx
	movq	%rdx, %rsi
	movq	%rax, %rdi
.LEHB16:
	call	_Z6MinCutRKSt3mapI4nodeSt6vectorIS0_SaIS0_EESt4lessIS0_ESaISt4pairIKS0_S3_EEE
.LEHE16:
	movl	$1, -284(%rbp)
	leaq	-284(%rbp), %rcx
	leaq	-112(%rbp), %rax
	leaq	.LC0(%rip), %rdx
	movq	%rcx, %rsi
	movq	%rax, %rdi
.LEHB17:
	call	_ZNSt4pairIiNSt7__cxx1112basic_stringIcSt11char_traitsIcESaIcEEEEC1IiRA6_KcLb1EEEOT_OT0_
.LEHE17:
	leaq	-112(%rbp), %rdx
	leaq	-280(%rbp), %rax
	movq	%rdx, %rsi
	movq	%rax, %rdi
.LEHB18:
	call	_ZN6BSTreeINSt7__cxx1112basic_stringIcSt11char_traitsIcESaIcEEEEC1ESt4pairIiS5_E
.LEHE18:
	leaq	-112(%rbp), %rax
	movq	%rax, %rdi
	call	_ZNSt4pairIiNSt7__cxx1112basic_stringIcSt11char_traitsIcESaIcEEEED1Ev
	leaq	-280(%rbp), %rax
	movl	$1, %esi
	movq	%rax, %rdi
	call	_ZN6BSTreeINSt7__cxx1112basic_stringIcSt11char_traitsIcESaIcEEEEixEi
	leaq	8(%rax), %rdx
	leaq	-144(%rbp), %rax
	movq	%rdx, %rsi
	movq	%rax, %rdi
.LEHB19:
	call	_ZNSt7__cxx1112basic_stringIcSt11char_traitsIcESaIcEEC1ERKS4_@PLT
.LEHE19:
	movl	$2, -284(%rbp)
	leaq	-284(%rbp), %rcx
	leaq	-112(%rbp), %rax
	leaq	.LC1(%rip), %rdx
	movq	%rcx, %rsi
	movq	%rax, %rdi
.LEHB20:
	call	_ZNSt4pairIiNSt7__cxx1112basic_stringIcSt11char_traitsIcESaIcEEEEC1IiRA5_KcLb1EEEOT_OT0_
.LEHE20:
	leaq	-112(%rbp), %rdx
	leaq	-280(%rbp), %rax
	movq	%rdx, %rsi
	movq	%rax, %rdi
.LEHB21:
	call	_ZN6BSTreeINSt7__cxx1112basic_stringIcSt11char_traitsIcESaIcEEEE6insertESt4pairIiS5_E
.LEHE21:
	leaq	-112(%rbp), %rax
	movq	%rax, %rdi
	call	_ZNSt4pairIiNSt7__cxx1112basic_stringIcSt11char_traitsIcESaIcEEEED1Ev
	leaq	-112(%rbp), %rax
	leaq	-280(%rbp), %rcx
	movl	$1, %edx
	movq	%rcx, %rsi
	movq	%rax, %rdi
.LEHB22:
	call	_ZN6BSTreeINSt7__cxx1112basic_stringIcSt11char_traitsIcESaIcEEEE3maxEi
.LEHE22:
	movl	$0, %ebx
	leaq	-112(%rbp), %rax
	movq	%rax, %rdi
	call	_ZN6BSTreeINSt7__cxx1112basic_stringIcSt11char_traitsIcESaIcEEEE6BSNodeD1Ev
	leaq	-144(%rbp), %rax
	movq	%rax, %rdi
	call	_ZNSt7__cxx1112basic_stringIcSt11char_traitsIcESaIcEED1Ev@PLT
	leaq	-192(%rbp), %rax
	movq	%rax, %rdi
	call	_ZNSt3mapI4nodeSt6vectorIS0_SaIS0_EESt4lessIS0_ESaISt4pairIKS0_S3_EEED1Ev
	leaq	-240(%rbp), %rax
	movq	%rax, %rdi
	call	_ZNSt3mapI4nodeSt6vectorIS0_SaIS0_EESt4lessIS0_ESaISt4pairIKS0_S3_EEED1Ev
	leaq	-272(%rbp), %rax
	movq	%rax, %rdi
	call	_ZNSt6vectorIiSaIiEED1Ev
	movl	%ebx, %eax
	movq	-40(%rbp), %rdx
	subq	%fs:40, %rdx
	je	.L134
	jmp	.L142
.L135:
	endbr64
	movq	%rax, %rbx
	leaq	-192(%rbp), %rax
	movq	%rax, %rdi
	call	_ZNSaIiED1Ev
	movq	%rbx, %rax
	movq	%rax, %rdi
.LEHB23:
	call	_Unwind_Resume@PLT
.L138:
	endbr64
	movq	%rax, %rbx
	leaq	-112(%rbp), %rax
	movq	%rax, %rdi
	call	_ZNSt4pairIiNSt7__cxx1112basic_stringIcSt11char_traitsIcESaIcEEEED1Ev
	jmp	.L129
.L140:
	endbr64
	movq	%rax, %rbx
	leaq	-112(%rbp), %rax
	movq	%rax, %rdi
	call	_ZNSt4pairIiNSt7__cxx1112basic_stringIcSt11char_traitsIcESaIcEEEED1Ev
	jmp	.L131
.L141:
	endbr64
	movq	%rax, %rbx
.L131:
	leaq	-144(%rbp), %rax
	movq	%rax, %rdi
	call	_ZNSt7__cxx1112basic_stringIcSt11char_traitsIcESaIcEED1Ev@PLT
	jmp	.L129
.L139:
	endbr64
	movq	%rax, %rbx
.L129:
	leaq	-192(%rbp), %rax
	movq	%rax, %rdi
	call	_ZNSt3mapI4nodeSt6vectorIS0_SaIS0_EESt4lessIS0_ESaISt4pairIKS0_S3_EEED1Ev
	jmp	.L132
.L137:
	endbr64
	movq	%rax, %rbx
.L132:
	leaq	-240(%rbp), %rax
	movq	%rax, %rdi
	call	_ZNSt3mapI4nodeSt6vectorIS0_SaIS0_EESt4lessIS0_ESaISt4pairIKS0_S3_EEED1Ev
	jmp	.L133
.L136:
	endbr64
	movq	%rax, %rbx
.L133:
	leaq	-272(%rbp), %rax
	movq	%rax, %rdi
	call	_ZNSt6vectorIiSaIiEED1Ev
	movq	%rbx, %rax
	movq	%rax, %rdi
	call	_Unwind_Resume@PLT
.LEHE23:
.L142:
	call	__stack_chk_fail@PLT
.L134:
	addq	$264, %rsp
	popq	%rbx
	popq	%r12
	popq	%r13
	popq	%rbp
	.cfi_def_cfa 7, 8
	ret
	.cfi_endproc
.LFE4191:
	.section	.gcc_except_table
.LLSDA4191:
	.byte	0xff
	.byte	0xff
	.byte	0x1
	.uleb128 .LLSDACSE4191-.LLSDACSB4191
.LLSDACSB4191:
	.uleb128 .LEHB14-.LFB4191
	.uleb128 .LEHE14-.LEHB14
	.uleb128 .L135-.LFB4191
	.uleb128 0
	.uleb128 .LEHB15-.LFB4191
	.uleb128 .LEHE15-.LEHB15
	.uleb128 .L136-.LFB4191
	.uleb128 0
	.uleb128 .LEHB16-.LFB4191
	.uleb128 .LEHE16-.LEHB16
	.uleb128 .L137-.LFB4191
	.uleb128 0
	.uleb128 .LEHB17-.LFB4191
	.uleb128 .LEHE17-.LEHB17
	.uleb128 .L139-.LFB4191
	.uleb128 0
	.uleb128 .LEHB18-.LFB4191
	.uleb128 .LEHE18-.LEHB18
	.uleb128 .L138-.LFB4191
	.uleb128 0
	.uleb128 .LEHB19-.LFB4191
	.uleb128 .LEHE19-.LEHB19
	.uleb128 .L139-.LFB4191
	.uleb128 0
	.uleb128 .LEHB20-.LFB4191
	.uleb128 .LEHE20-.LEHB20
	.uleb128 .L141-.LFB4191
	.uleb128 0
	.uleb128 .LEHB21-.LFB4191
	.uleb128 .LEHE21-.LEHB21
	.uleb128 .L140-.LFB4191
	.uleb128 0
	.uleb128 .LEHB22-.LFB4191
	.uleb128 .LEHE22-.LEHB22
	.uleb128 .L141-.LFB4191
	.uleb128 0
	.uleb128 .LEHB23-.LFB4191
	.uleb128 .LEHE23-.LEHB23
	.uleb128 0
	.uleb128 0
.LLSDACSE4191:
	.text
	.size	main, .-main
	.section	.text._ZN9__gnu_cxx11char_traitsIcE6lengthEPKc,"axG",@progbits,_ZN9__gnu_cxx11char_traitsIcE6lengthEPKc,comdat
	.align 2
	.weak	_ZN9__gnu_cxx11char_traitsIcE6lengthEPKc
	.type	_ZN9__gnu_cxx11char_traitsIcE6lengthEPKc, @function
_ZN9__gnu_cxx11char_traitsIcE6lengthEPKc:
.LFB4209:
	.cfi_startproc
	endbr64
	pushq	%rbp
	.cfi_def_cfa_offset 16
	.cfi_offset 6, -16
	movq	%rsp, %rbp
	.cfi_def_cfa_register 6
	subq	$48, %rsp
	movq	%rdi, -40(%rbp)
	movq	%fs:40, %rax
	movq	%rax, -8(%rbp)
	xorl	%eax, %eax
	movq	$0, -16(%rbp)
	jmp	.L144
.L145:
	addq	$1, -16(%rbp)
.L144:
	movb	$0, -17(%rbp)
	movq	-40(%rbp), %rdx
	movq	-16(%rbp), %rax
	addq	%rax, %rdx
	leaq	-17(%rbp), %rax
	movq	%rax, %rsi
	movq	%rdx, %rdi
	call	_ZN9__gnu_cxx11char_traitsIcE2eqERKcS3_
	xorl	$1, %eax
	testb	%al, %al
	jne	.L145
	movq	-16(%rbp), %rax
	movq	-8(%rbp), %rdx
	subq	%fs:40, %rdx
	je	.L147
	call	__stack_chk_fail@PLT
.L147:
	leave
	.cfi_def_cfa 7, 8
	ret
	.cfi_endproc
.LFE4209:
	.size	_ZN9__gnu_cxx11char_traitsIcE6lengthEPKc, .-_ZN9__gnu_cxx11char_traitsIcE6lengthEPKc
	.section	.text._ZNSt7__cxx1112basic_stringIcSt11char_traitsIcESaIcEE12_Alloc_hiderD2Ev,"axG",@progbits,_ZNSt7__cxx1112basic_stringIcSt11char_traitsIcESaIcEE12_Alloc_hiderD5Ev,comdat
	.align 2
	.weak	_ZNSt7__cxx1112basic_stringIcSt11char_traitsIcESaIcEE12_Alloc_hiderD2Ev
	.type	_ZNSt7__cxx1112basic_stringIcSt11char_traitsIcESaIcEE12_Alloc_hiderD2Ev, @function
_ZNSt7__cxx1112basic_stringIcSt11char_traitsIcESaIcEE12_Alloc_hiderD2Ev:
.LFB4318:
	.cfi_startproc
	endbr64
	pushq	%rbp
	.cfi_def_cfa_offset 16
	.cfi_offset 6, -16
	movq	%rsp, %rbp
	.cfi_def_cfa_register 6
	subq	$16, %rsp
	movq	%rdi, -8(%rbp)
	movq	-8(%rbp), %rax
	movq	%rax, %rdi
	call	_ZNSaIcED2Ev@PLT
	nop
	leave
	.cfi_def_cfa 7, 8
	ret
	.cfi_endproc
.LFE4318:
	.size	_ZNSt7__cxx1112basic_stringIcSt11char_traitsIcESaIcEE12_Alloc_hiderD2Ev, .-_ZNSt7__cxx1112basic_stringIcSt11char_traitsIcESaIcEE12_Alloc_hiderD2Ev
	.weak	_ZNSt7__cxx1112basic_stringIcSt11char_traitsIcESaIcEE12_Alloc_hiderD1Ev
	.set	_ZNSt7__cxx1112basic_stringIcSt11char_traitsIcESaIcEE12_Alloc_hiderD1Ev,_ZNSt7__cxx1112basic_stringIcSt11char_traitsIcESaIcEE12_Alloc_hiderD2Ev
	.section	.text._ZSteqIcEN9__gnu_cxx11__enable_ifIXsrSt9__is_charIT_E7__valueEbE6__typeERKNSt7__cxx1112basic_stringIS3_St11char_traitsIS3_ESaIS3_EEESE_,"axG",@progbits,_ZSteqIcEN9__gnu_cxx11__enable_ifIXsrSt9__is_charIT_E7__valueEbE6__typeERKNSt7__cxx1112basic_stringIS3_St11char_traitsIS3_ESaIS3_EEESE_,comdat
	.weak	_ZSteqIcEN9__gnu_cxx11__enable_ifIXsrSt9__is_charIT_E7__valueEbE6__typeERKNSt7__cxx1112basic_stringIS3_St11char_traitsIS3_ESaIS3_EEESE_
	.type	_ZSteqIcEN9__gnu_cxx11__enable_ifIXsrSt9__is_charIT_E7__valueEbE6__typeERKNSt7__cxx1112basic_stringIS3_St11char_traitsIS3_ESaIS3_EEESE_, @function
_ZSteqIcEN9__gnu_cxx11__enable_ifIXsrSt9__is_charIT_E7__valueEbE6__typeERKNSt7__cxx1112basic_stringIS3_St11char_traitsIS3_ESaIS3_EEESE_:
.LFB4555:
	.cfi_startproc
	endbr64
	pushq	%rbp
	.cfi_def_cfa_offset 16
	.cfi_offset 6, -16
	movq	%rsp, %rbp
	.cfi_def_cfa_register 6
	pushq	%r12
	pushq	%rbx
	subq	$16, %rsp
	.cfi_offset 12, -24
	.cfi_offset 3, -32
	movq	%rdi, -24(%rbp)
	movq	%rsi, -32(%rbp)
	movq	-24(%rbp), %rax
	movq	%rax, %rdi
	call	_ZNKSt7__cxx1112basic_stringIcSt11char_traitsIcESaIcEE4sizeEv@PLT
	movq	%rax, %rbx
	movq	-32(%rbp), %rax
	movq	%rax, %rdi
	call	_ZNKSt7__cxx1112basic_stringIcSt11char_traitsIcESaIcEE4sizeEv@PLT
	cmpq	%rax, %rbx
	jne	.L150
	movq	-24(%rbp), %rax
	movq	%rax, %rdi
	call	_ZNKSt7__cxx1112basic_stringIcSt11char_traitsIcESaIcEE4sizeEv@PLT
	movq	%rax, %r12
	movq	-32(%rbp), %rax
	movq	%rax, %rdi
	call	_ZNKSt7__cxx1112basic_stringIcSt11char_traitsIcESaIcEE4dataEv@PLT
	movq	%rax, %rbx
	movq	-24(%rbp), %rax
	movq	%rax, %rdi
	call	_ZNKSt7__cxx1112basic_stringIcSt11char_traitsIcESaIcEE4dataEv@PLT
	movq	%r12, %rdx
	movq	%rbx, %rsi
	movq	%rax, %rdi
	call	_ZNSt11char_traitsIcE7compareEPKcS2_m
	testl	%eax, %eax
	jne	.L150
	movl	$1, %eax
	jmp	.L151
.L150:
	movl	$0, %eax
.L151:
	addq	$16, %rsp
	popq	%rbx
	popq	%r12
	popq	%rbp
	.cfi_def_cfa 7, 8
	ret
	.cfi_endproc
.LFE4555:
	.size	_ZSteqIcEN9__gnu_cxx11__enable_ifIXsrSt9__is_charIT_E7__valueEbE6__typeERKNSt7__cxx1112basic_stringIS3_St11char_traitsIS3_ESaIS3_EEESE_, .-_ZSteqIcEN9__gnu_cxx11__enable_ifIXsrSt9__is_charIT_E7__valueEbE6__typeERKNSt7__cxx1112basic_stringIS3_St11char_traitsIS3_ESaIS3_EEESE_
	.section	.text._ZStneIcSt11char_traitsIcESaIcEEbRKNSt7__cxx1112basic_stringIT_T0_T1_EESA_,"axG",@progbits,_ZStneIcSt11char_traitsIcESaIcEEbRKNSt7__cxx1112basic_stringIT_T0_T1_EESA_,comdat
	.weak	_ZStneIcSt11char_traitsIcESaIcEEbRKNSt7__cxx1112basic_stringIT_T0_T1_EESA_
	.type	_ZStneIcSt11char_traitsIcESaIcEEbRKNSt7__cxx1112basic_stringIT_T0_T1_EESA_, @function
_ZStneIcSt11char_traitsIcESaIcEEbRKNSt7__cxx1112basic_stringIT_T0_T1_EESA_:
.LFB4556:
	.cfi_startproc
	endbr64
	pushq	%rbp
	.cfi_def_cfa_offset 16
	.cfi_offset 6, -16
	movq	%rsp, %rbp
	.cfi_def_cfa_register 6
	subq	$16, %rsp
	movq	%rdi, -8(%rbp)
	movq	%rsi, -16(%rbp)
	movq	-16(%rbp), %rdx
	movq	-8(%rbp), %rax
	movq	%rdx, %rsi
	movq	%rax, %rdi
	call	_ZSteqIcEN9__gnu_cxx11__enable_ifIXsrSt9__is_charIT_E7__valueEbE6__typeERKNSt7__cxx1112basic_stringIS3_St11char_traitsIS3_ESaIS3_EEESE_
	xorl	$1, %eax
	leave
	.cfi_def_cfa 7, 8
	ret
	.cfi_endproc
.LFE4556:
	.size	_ZStneIcSt11char_traitsIcESaIcEEbRKNSt7__cxx1112basic_stringIT_T0_T1_EESA_, .-_ZStneIcSt11char_traitsIcESaIcEEbRKNSt7__cxx1112basic_stringIT_T0_T1_EESA_
	.section	.text._ZStltIcSt11char_traitsIcESaIcEEbRKNSt7__cxx1112basic_stringIT_T0_T1_EESA_,"axG",@progbits,_ZStltIcSt11char_traitsIcESaIcEEbRKNSt7__cxx1112basic_stringIT_T0_T1_EESA_,comdat
	.weak	_ZStltIcSt11char_traitsIcESaIcEEbRKNSt7__cxx1112basic_stringIT_T0_T1_EESA_
	.type	_ZStltIcSt11char_traitsIcESaIcEEbRKNSt7__cxx1112basic_stringIT_T0_T1_EESA_, @function
_ZStltIcSt11char_traitsIcESaIcEEbRKNSt7__cxx1112basic_stringIT_T0_T1_EESA_:
.LFB4557:
	.cfi_startproc
	.cfi_personality 0x9b,DW.ref.__gxx_personality_v0
	.cfi_lsda 0x1b,.LLSDA4557
	endbr64
	pushq	%rbp
	.cfi_def_cfa_offset 16
	.cfi_offset 6, -16
	movq	%rsp, %rbp
	.cfi_def_cfa_register 6
	subq	$16, %rsp
	movq	%rdi, -8(%rbp)
	movq	%rsi, -16(%rbp)
	movq	-16(%rbp), %rdx
	movq	-8(%rbp), %rax
	movq	%rdx, %rsi
	movq	%rax, %rdi
	call	_ZNKSt7__cxx1112basic_stringIcSt11char_traitsIcESaIcEE7compareERKS4_@PLT
	shrl	$31, %eax
	leave
	.cfi_def_cfa 7, 8
	ret
	.cfi_endproc
.LFE4557:
	.section	.gcc_except_table
.LLSDA4557:
	.byte	0xff
	.byte	0xff
	.byte	0x1
	.uleb128 .LLSDACSE4557-.LLSDACSB4557
.LLSDACSB4557:
.LLSDACSE4557:
	.section	.text._ZStltIcSt11char_traitsIcESaIcEEbRKNSt7__cxx1112basic_stringIT_T0_T1_EESA_,"axG",@progbits,_ZStltIcSt11char_traitsIcESaIcEEbRKNSt7__cxx1112basic_stringIT_T0_T1_EESA_,comdat
	.size	_ZStltIcSt11char_traitsIcESaIcEEbRKNSt7__cxx1112basic_stringIT_T0_T1_EESA_, .-_ZStltIcSt11char_traitsIcESaIcEEbRKNSt7__cxx1112basic_stringIT_T0_T1_EESA_
	.section	.text._ZNSt8_Rb_treeI4nodeSt4pairIKS0_St6vectorIS0_SaIS0_EEESt10_Select1stIS6_ESt4lessIS0_ESaIS6_EEC2ERKSC_,"axG",@progbits,_ZNSt8_Rb_treeI4nodeSt4pairIKS0_St6vectorIS0_SaIS0_EEESt10_Select1stIS6_ESt4lessIS0_ESaIS6_EEC5ERKSC_,comdat
	.align 2
	.weak	_ZNSt8_Rb_treeI4nodeSt4pairIKS0_St6vectorIS0_SaIS0_EEESt10_Select1stIS6_ESt4lessIS0_ESaIS6_EEC2ERKSC_
	.type	_ZNSt8_Rb_treeI4nodeSt4pairIKS0_St6vectorIS0_SaIS0_EEESt10_Select1stIS6_ESt4lessIS0_ESaIS6_EEC2ERKSC_, @function
_ZNSt8_Rb_treeI4nodeSt4pairIKS0_St6vectorIS0_SaIS0_EEESt10_Select1stIS6_ESt4lessIS0_ESaIS6_EEC2ERKSC_:
.LFB4559:
	.cfi_startproc
	.cfi_personality 0x9b,DW.ref.__gxx_personality_v0
	.cfi_lsda 0x1b,.LLSDA4559
	endbr64
	pushq	%rbp
	.cfi_def_cfa_offset 16
	.cfi_offset 6, -16
	movq	%rsp, %rbp
	.cfi_def_cfa_register 6
	pushq	%rbx
	subq	$24, %rsp
	.cfi_offset 3, -24
	movq	%rdi, -24(%rbp)
	movq	%rsi, -32(%rbp)
	movq	-24(%rbp), %rax
	movq	-32(%rbp), %rdx
	movq	%rdx, %rsi
	movq	%rax, %rdi
.LEHB24:
	call	_ZNSt8_Rb_treeI4nodeSt4pairIKS0_St6vectorIS0_SaIS0_EEESt10_Select1stIS6_ESt4lessIS0_ESaIS6_EE13_Rb_tree_implISA_Lb1EEC1ERKSE_
.LEHE24:
	movq	-32(%rbp), %rax
	movq	%rax, %rdi
	call	_ZNKSt8_Rb_treeI4nodeSt4pairIKS0_St6vectorIS0_SaIS0_EEESt10_Select1stIS6_ESt4lessIS0_ESaIS6_EE7_M_rootEv
	testq	%rax, %rax
	setne	%al
	testb	%al, %al
	je	.L161
	movq	-32(%rbp), %rdx
	movq	-24(%rbp), %rax
	movq	%rdx, %rsi
	movq	%rax, %rdi
.LEHB25:
	call	_ZNSt8_Rb_treeI4nodeSt4pairIKS0_St6vectorIS0_SaIS0_EEESt10_Select1stIS6_ESt4lessIS0_ESaIS6_EE7_M_copyERKSC_
.LEHE25:
	movq	%rax, %rbx
	movq	-24(%rbp), %rax
	movq	%rax, %rdi
	call	_ZNSt8_Rb_treeI4nodeSt4pairIKS0_St6vectorIS0_SaIS0_EEESt10_Select1stIS6_ESt4lessIS0_ESaIS6_EE7_M_rootEv
	movq	%rbx, (%rax)
	jmp	.L161
.L160:
	endbr64
	movq	%rax, %rbx
	movq	-24(%rbp), %rax
	movq	%rax, %rdi
	call	_ZNSt8_Rb_treeI4nodeSt4pairIKS0_St6vectorIS0_SaIS0_EEESt10_Select1stIS6_ESt4lessIS0_ESaIS6_EE13_Rb_tree_implISA_Lb1EED1Ev
	movq	%rbx, %rax
	movq	%rax, %rdi
.LEHB26:
	call	_Unwind_Resume@PLT
.LEHE26:
.L161:
	nop
	movq	-8(%rbp), %rbx
	leave
	.cfi_def_cfa 7, 8
	ret
	.cfi_endproc
.LFE4559:
	.section	.gcc_except_table
.LLSDA4559:
	.byte	0xff
	.byte	0xff
	.byte	0x1
	.uleb128 .LLSDACSE4559-.LLSDACSB4559
.LLSDACSB4559:
	.uleb128 .LEHB24-.LFB4559
	.uleb128 .LEHE24-.LEHB24
	.uleb128 0
	.uleb128 0
	.uleb128 .LEHB25-.LFB4559
	.uleb128 .LEHE25-.LEHB25
	.uleb128 .L160-.LFB4559
	.uleb128 0
	.uleb128 .LEHB26-.LFB4559
	.uleb128 .LEHE26-.LEHB26
	.uleb128 0
	.uleb128 0
.LLSDACSE4559:
	.section	.text._ZNSt8_Rb_treeI4nodeSt4pairIKS0_St6vectorIS0_SaIS0_EEESt10_Select1stIS6_ESt4lessIS0_ESaIS6_EEC2ERKSC_,"axG",@progbits,_ZNSt8_Rb_treeI4nodeSt4pairIKS0_St6vectorIS0_SaIS0_EEESt10_Select1stIS6_ESt4lessIS0_ESaIS6_EEC5ERKSC_,comdat
	.size	_ZNSt8_Rb_treeI4nodeSt4pairIKS0_St6vectorIS0_SaIS0_EEESt10_Select1stIS6_ESt4lessIS0_ESaIS6_EEC2ERKSC_, .-_ZNSt8_Rb_treeI4nodeSt4pairIKS0_St6vectorIS0_SaIS0_EEESt10_Select1stIS6_ESt4lessIS0_ESaIS6_EEC2ERKSC_
	.weak	_ZNSt8_Rb_treeI4nodeSt4pairIKS0_St6vectorIS0_SaIS0_EEESt10_Select1stIS6_ESt4lessIS0_ESaIS6_EEC1ERKSC_
	.set	_ZNSt8_Rb_treeI4nodeSt4pairIKS0_St6vectorIS0_SaIS0_EEESt10_Select1stIS6_ESt4lessIS0_ESaIS6_EEC1ERKSC_,_ZNSt8_Rb_treeI4nodeSt4pairIKS0_St6vectorIS0_SaIS0_EEESt10_Select1stIS6_ESt4lessIS0_ESaIS6_EEC2ERKSC_
	.section	.text._ZNSt8_Rb_treeI4nodeSt4pairIKS0_St6vectorIS0_SaIS0_EEESt10_Select1stIS6_ESt4lessIS0_ESaIS6_EED2Ev,"axG",@progbits,_ZNSt8_Rb_treeI4nodeSt4pairIKS0_St6vectorIS0_SaIS0_EEESt10_Select1stIS6_ESt4lessIS0_ESaIS6_EED5Ev,comdat
	.align 2
	.weak	_ZNSt8_Rb_treeI4nodeSt4pairIKS0_St6vectorIS0_SaIS0_EEESt10_Select1stIS6_ESt4lessIS0_ESaIS6_EED2Ev
	.type	_ZNSt8_Rb_treeI4nodeSt4pairIKS0_St6vectorIS0_SaIS0_EEESt10_Select1stIS6_ESt4lessIS0_ESaIS6_EED2Ev, @function
_ZNSt8_Rb_treeI4nodeSt4pairIKS0_St6vectorIS0_SaIS0_EEESt10_Select1stIS6_ESt4lessIS0_ESaIS6_EED2Ev:
.LFB4562:
	.cfi_startproc
	.cfi_personality 0x9b,DW.ref.__gxx_personality_v0
	.cfi_lsda 0x1b,.LLSDA4562
	endbr64
	pushq	%rbp
	.cfi_def_cfa_offset 16
	.cfi_offset 6, -16
	movq	%rsp, %rbp
	.cfi_def_cfa_register 6
	subq	$16, %rsp
	movq	%rdi, -8(%rbp)
	movq	-8(%rbp), %rax
	movq	%rax, %rdi
	call	_ZNSt8_Rb_treeI4nodeSt4pairIKS0_St6vectorIS0_SaIS0_EEESt10_Select1stIS6_ESt4lessIS0_ESaIS6_EE8_M_beginEv
	movq	%rax, %rdx
	movq	-8(%rbp), %rax
	movq	%rdx, %rsi
	movq	%rax, %rdi
	call	_ZNSt8_Rb_treeI4nodeSt4pairIKS0_St6vectorIS0_SaIS0_EEESt10_Select1stIS6_ESt4lessIS0_ESaIS6_EE8_M_eraseEPSt13_Rb_tree_nodeIS6_E
	movq	-8(%rbp), %rax
	movq	%rax, %rdi
	call	_ZNSt8_Rb_treeI4nodeSt4pairIKS0_St6vectorIS0_SaIS0_EEESt10_Select1stIS6_ESt4lessIS0_ESaIS6_EE13_Rb_tree_implISA_Lb1EED1Ev
	nop
	leave
	.cfi_def_cfa 7, 8
	ret
	.cfi_endproc
.LFE4562:
	.section	.gcc_except_table
.LLSDA4562:
	.byte	0xff
	.byte	0xff
	.byte	0x1
	.uleb128 .LLSDACSE4562-.LLSDACSB4562
.LLSDACSB4562:
.LLSDACSE4562:
	.section	.text._ZNSt8_Rb_treeI4nodeSt4pairIKS0_St6vectorIS0_SaIS0_EEESt10_Select1stIS6_ESt4lessIS0_ESaIS6_EED2Ev,"axG",@progbits,_ZNSt8_Rb_treeI4nodeSt4pairIKS0_St6vectorIS0_SaIS0_EEESt10_Select1stIS6_ESt4lessIS0_ESaIS6_EED5Ev,comdat
	.size	_ZNSt8_Rb_treeI4nodeSt4pairIKS0_St6vectorIS0_SaIS0_EEESt10_Select1stIS6_ESt4lessIS0_ESaIS6_EED2Ev, .-_ZNSt8_Rb_treeI4nodeSt4pairIKS0_St6vectorIS0_SaIS0_EEESt10_Select1stIS6_ESt4lessIS0_ESaIS6_EED2Ev
	.weak	_ZNSt8_Rb_treeI4nodeSt4pairIKS0_St6vectorIS0_SaIS0_EEESt10_Select1stIS6_ESt4lessIS0_ESaIS6_EED1Ev
	.set	_ZNSt8_Rb_treeI4nodeSt4pairIKS0_St6vectorIS0_SaIS0_EEESt10_Select1stIS6_ESt4lessIS0_ESaIS6_EED1Ev,_ZNSt8_Rb_treeI4nodeSt4pairIKS0_St6vectorIS0_SaIS0_EEESt10_Select1stIS6_ESt4lessIS0_ESaIS6_EED2Ev
	.section	.text._ZNKSt3mapI4nodeSt6vectorIS0_SaIS0_EESt4lessIS0_ESaISt4pairIKS0_S3_EEE4sizeEv,"axG",@progbits,_ZNKSt3mapI4nodeSt6vectorIS0_SaIS0_EESt4lessIS0_ESaISt4pairIKS0_S3_EEE4sizeEv,comdat
	.align 2
	.weak	_ZNKSt3mapI4nodeSt6vectorIS0_SaIS0_EESt4lessIS0_ESaISt4pairIKS0_S3_EEE4sizeEv
	.type	_ZNKSt3mapI4nodeSt6vectorIS0_SaIS0_EESt4lessIS0_ESaISt4pairIKS0_S3_EEE4sizeEv, @function
_ZNKSt3mapI4nodeSt6vectorIS0_SaIS0_EESt4lessIS0_ESaISt4pairIKS0_S3_EEE4sizeEv:
.LFB4564:
	.cfi_startproc
	endbr64
	pushq	%rbp
	.cfi_def_cfa_offset 16
	.cfi_offset 6, -16
	movq	%rsp, %rbp
	.cfi_def_cfa_register 6
	subq	$16, %rsp
	movq	%rdi, -8(%rbp)
	movq	-8(%rbp), %rax
	movq	%rax, %rdi
	call	_ZNKSt8_Rb_treeI4nodeSt4pairIKS0_St6vectorIS0_SaIS0_EEESt10_Select1stIS6_ESt4lessIS0_ESaIS6_EE4sizeEv
	leave
	.cfi_def_cfa 7, 8
	ret
	.cfi_endproc
.LFE4564:
	.size	_ZNKSt3mapI4nodeSt6vectorIS0_SaIS0_EESt4lessIS0_ESaISt4pairIKS0_S3_EEE4sizeEv, .-_ZNKSt3mapI4nodeSt6vectorIS0_SaIS0_EESt4lessIS0_ESaISt4pairIKS0_S3_EEE4sizeEv
	.section	.text._ZSt5beginISt3mapI4nodeSt6vectorIS1_SaIS1_EESt4lessIS1_ESaISt4pairIKS1_S4_EEEEDTcldtfp_5beginEERT_,"axG",@progbits,_ZSt5beginISt3mapI4nodeSt6vectorIS1_SaIS1_EESt4lessIS1_ESaISt4pairIKS1_S4_EEEEDTcldtfp_5beginEERT_,comdat
	.weak	_ZSt5beginISt3mapI4nodeSt6vectorIS1_SaIS1_EESt4lessIS1_ESaISt4pairIKS1_S4_EEEEDTcldtfp_5beginEERT_
	.type	_ZSt5beginISt3mapI4nodeSt6vectorIS1_SaIS1_EESt4lessIS1_ESaISt4pairIKS1_S4_EEEEDTcldtfp_5beginEERT_, @function
_ZSt5beginISt3mapI4nodeSt6vectorIS1_SaIS1_EESt4lessIS1_ESaISt4pairIKS1_S4_EEEEDTcldtfp_5beginEERT_:
.LFB4565:
	.cfi_startproc
	endbr64
	pushq	%rbp
	.cfi_def_cfa_offset 16
	.cfi_offset 6, -16
	movq	%rsp, %rbp
	.cfi_def_cfa_register 6
	subq	$16, %rsp
	movq	%rdi, -8(%rbp)
	movq	-8(%rbp), %rax
	movq	%rax, %rdi
	call	_ZNSt3mapI4nodeSt6vectorIS0_SaIS0_EESt4lessIS0_ESaISt4pairIKS0_S3_EEE5beginEv
	leave
	.cfi_def_cfa 7, 8
	ret
	.cfi_endproc
.LFE4565:
	.size	_ZSt5beginISt3mapI4nodeSt6vectorIS1_SaIS1_EESt4lessIS1_ESaISt4pairIKS1_S4_EEEEDTcldtfp_5beginEERT_, .-_ZSt5beginISt3mapI4nodeSt6vectorIS1_SaIS1_EESt4lessIS1_ESaISt4pairIKS1_S4_EEEEDTcldtfp_5beginEERT_
	.section	.text._ZSt4nextISt17_Rb_tree_iteratorISt4pairIK4nodeSt6vectorIS2_SaIS2_EEEEET_S9_NSt15iterator_traitsIS9_E15difference_typeE,"axG",@progbits,_ZSt4nextISt17_Rb_tree_iteratorISt4pairIK4nodeSt6vectorIS2_SaIS2_EEEEET_S9_NSt15iterator_traitsIS9_E15difference_typeE,comdat
	.weak	_ZSt4nextISt17_Rb_tree_iteratorISt4pairIK4nodeSt6vectorIS2_SaIS2_EEEEET_S9_NSt15iterator_traitsIS9_E15difference_typeE
	.type	_ZSt4nextISt17_Rb_tree_iteratorISt4pairIK4nodeSt6vectorIS2_SaIS2_EEEEET_S9_NSt15iterator_traitsIS9_E15difference_typeE, @function
_ZSt4nextISt17_Rb_tree_iteratorISt4pairIK4nodeSt6vectorIS2_SaIS2_EEEEET_S9_NSt15iterator_traitsIS9_E15difference_typeE:
.LFB4566:
	.cfi_startproc
	endbr64
	pushq	%rbp
	.cfi_def_cfa_offset 16
	.cfi_offset 6, -16
	movq	%rsp, %rbp
	.cfi_def_cfa_register 6
	subq	$16, %rsp
	movq	%rdi, -8(%rbp)
	movq	%rsi, -16(%rbp)
	movq	-16(%rbp), %rdx
	leaq	-8(%rbp), %rax
	movq	%rdx, %rsi
	movq	%rax, %rdi
	call	_ZSt7advanceISt17_Rb_tree_iteratorISt4pairIK4nodeSt6vectorIS2_SaIS2_EEEElEvRT_T0_
	movq	-8(%rbp), %rax
	leave
	.cfi_def_cfa 7, 8
	ret
	.cfi_endproc
.LFE4566:
	.size	_ZSt4nextISt17_Rb_tree_iteratorISt4pairIK4nodeSt6vectorIS2_SaIS2_EEEEET_S9_NSt15iterator_traitsIS9_E15difference_typeE, .-_ZSt4nextISt17_Rb_tree_iteratorISt4pairIK4nodeSt6vectorIS2_SaIS2_EEEEET_S9_NSt15iterator_traitsIS9_E15difference_typeE
	.section	.text._ZNKSt17_Rb_tree_iteratorISt4pairIK4nodeSt6vectorIS1_SaIS1_EEEEptEv,"axG",@progbits,_ZNKSt17_Rb_tree_iteratorISt4pairIK4nodeSt6vectorIS1_SaIS1_EEEEptEv,comdat
	.align 2
	.weak	_ZNKSt17_Rb_tree_iteratorISt4pairIK4nodeSt6vectorIS1_SaIS1_EEEEptEv
	.type	_ZNKSt17_Rb_tree_iteratorISt4pairIK4nodeSt6vectorIS1_SaIS1_EEEEptEv, @function
_ZNKSt17_Rb_tree_iteratorISt4pairIK4nodeSt6vectorIS1_SaIS1_EEEEptEv:
.LFB4567:
	.cfi_startproc
	endbr64
	pushq	%rbp
	.cfi_def_cfa_offset 16
	.cfi_offset 6, -16
	movq	%rsp, %rbp
	.cfi_def_cfa_register 6
	subq	$16, %rsp
	movq	%rdi, -8(%rbp)
	movq	-8(%rbp), %rax
	movq	(%rax), %rax
	movq	%rax, %rdi
	call	_ZNSt13_Rb_tree_nodeISt4pairIK4nodeSt6vectorIS1_SaIS1_EEEE9_M_valptrEv
	leave
	.cfi_def_cfa 7, 8
	ret
	.cfi_endproc
.LFE4567:
	.size	_ZNKSt17_Rb_tree_iteratorISt4pairIK4nodeSt6vectorIS1_SaIS1_EEEEptEv, .-_ZNKSt17_Rb_tree_iteratorISt4pairIK4nodeSt6vectorIS1_SaIS1_EEEEptEv
	.section	.text._ZNSt6vectorI4nodeSaIS0_EE5beginEv,"axG",@progbits,_ZNSt6vectorI4nodeSaIS0_EE5beginEv,comdat
	.align 2
	.weak	_ZNSt6vectorI4nodeSaIS0_EE5beginEv
	.type	_ZNSt6vectorI4nodeSaIS0_EE5beginEv, @function
_ZNSt6vectorI4nodeSaIS0_EE5beginEv:
.LFB4568:
	.cfi_startproc
	endbr64
	pushq	%rbp
	.cfi_def_cfa_offset 16
	.cfi_offset 6, -16
	movq	%rsp, %rbp
	.cfi_def_cfa_register 6
	subq	$32, %rsp
	movq	%rdi, -24(%rbp)
	movq	%fs:40, %rax
	movq	%rax, -8(%rbp)
	xorl	%eax, %eax
	movq	-24(%rbp), %rdx
	leaq	-16(%rbp), %rax
	movq	%rdx, %rsi
	movq	%rax, %rdi
	call	_ZN9__gnu_cxx17__normal_iteratorIP4nodeSt6vectorIS1_SaIS1_EEEC1ERKS2_
	movq	-16(%rbp), %rax
	movq	-8(%rbp), %rdx
	subq	%fs:40, %rdx
	je	.L173
	call	__stack_chk_fail@PLT
.L173:
	leave
	.cfi_def_cfa 7, 8
	ret
	.cfi_endproc
.LFE4568:
	.size	_ZNSt6vectorI4nodeSaIS0_EE5beginEv, .-_ZNSt6vectorI4nodeSaIS0_EE5beginEv
	.section	.text._ZSt4sizeISt6vectorI4nodeSaIS1_EEEDTcldtfp_4sizeEERKT_,"axG",@progbits,_ZSt4sizeISt6vectorI4nodeSaIS1_EEEDTcldtfp_4sizeEERKT_,comdat
	.weak	_ZSt4sizeISt6vectorI4nodeSaIS1_EEEDTcldtfp_4sizeEERKT_
	.type	_ZSt4sizeISt6vectorI4nodeSaIS1_EEEDTcldtfp_4sizeEERKT_, @function
_ZSt4sizeISt6vectorI4nodeSaIS1_EEEDTcldtfp_4sizeEERKT_:
.LFB4569:
	.cfi_startproc
	endbr64
	pushq	%rbp
	.cfi_def_cfa_offset 16
	.cfi_offset 6, -16
	movq	%rsp, %rbp
	.cfi_def_cfa_register 6
	subq	$16, %rsp
	movq	%rdi, -8(%rbp)
	movq	-8(%rbp), %rax
	movq	%rax, %rdi
	call	_ZNKSt6vectorI4nodeSaIS0_EE4sizeEv
	leave
	.cfi_def_cfa 7, 8
	ret
	.cfi_endproc
.LFE4569:
	.size	_ZSt4sizeISt6vectorI4nodeSaIS1_EEEDTcldtfp_4sizeEERKT_, .-_ZSt4sizeISt6vectorI4nodeSaIS1_EEEDTcldtfp_4sizeEERKT_
	.section	.text._ZNK9__gnu_cxx17__normal_iteratorIP4nodeSt6vectorIS1_SaIS1_EEEplEl,"axG",@progbits,_ZNK9__gnu_cxx17__normal_iteratorIP4nodeSt6vectorIS1_SaIS1_EEEplEl,comdat
	.align 2
	.weak	_ZNK9__gnu_cxx17__normal_iteratorIP4nodeSt6vectorIS1_SaIS1_EEEplEl
	.type	_ZNK9__gnu_cxx17__normal_iteratorIP4nodeSt6vectorIS1_SaIS1_EEEplEl, @function
_ZNK9__gnu_cxx17__normal_iteratorIP4nodeSt6vectorIS1_SaIS1_EEEplEl:
.LFB4570:
	.cfi_startproc
	endbr64
	pushq	%rbp
	.cfi_def_cfa_offset 16
	.cfi_offset 6, -16
	movq	%rsp, %rbp
	.cfi_def_cfa_register 6
	subq	$48, %rsp
	movq	%rdi, -40(%rbp)
	movq	%rsi, -48(%rbp)
	movq	%fs:40, %rax
	movq	%rax, -8(%rbp)
	xorl	%eax, %eax
	movq	-40(%rbp), %rax
	movq	(%rax), %rcx
	movq	-48(%rbp), %rdx
	movq	%rdx, %rax
	salq	$2, %rax
	addq	%rdx, %rax
	salq	$3, %rax
	addq	%rcx, %rax
	movq	%rax, -24(%rbp)
	leaq	-24(%rbp), %rdx
	leaq	-16(%rbp), %rax
	movq	%rdx, %rsi
	movq	%rax, %rdi
	call	_ZN9__gnu_cxx17__normal_iteratorIP4nodeSt6vectorIS1_SaIS1_EEEC1ERKS2_
	movq	-16(%rbp), %rax
	movq	-8(%rbp), %rdx
	subq	%fs:40, %rdx
	je	.L178
	call	__stack_chk_fail@PLT
.L178:
	leave
	.cfi_def_cfa 7, 8
	ret
	.cfi_endproc
.LFE4570:
	.size	_ZNK9__gnu_cxx17__normal_iteratorIP4nodeSt6vectorIS1_SaIS1_EEEplEl, .-_ZNK9__gnu_cxx17__normal_iteratorIP4nodeSt6vectorIS1_SaIS1_EEEplEl
	.section	.text._ZNK9__gnu_cxx17__normal_iteratorIP4nodeSt6vectorIS1_SaIS1_EEEdeEv,"axG",@progbits,_ZNK9__gnu_cxx17__normal_iteratorIP4nodeSt6vectorIS1_SaIS1_EEEdeEv,comdat
	.align 2
	.weak	_ZNK9__gnu_cxx17__normal_iteratorIP4nodeSt6vectorIS1_SaIS1_EEEdeEv
	.type	_ZNK9__gnu_cxx17__normal_iteratorIP4nodeSt6vectorIS1_SaIS1_EEEdeEv, @function
_ZNK9__gnu_cxx17__normal_iteratorIP4nodeSt6vectorIS1_SaIS1_EEEdeEv:
.LFB4571:
	.cfi_startproc
	endbr64
	pushq	%rbp
	.cfi_def_cfa_offset 16
	.cfi_offset 6, -16
	movq	%rsp, %rbp
	.cfi_def_cfa_register 6
	movq	%rdi, -8(%rbp)
	movq	-8(%rbp), %rax
	movq	(%rax), %rax
	popq	%rbp
	.cfi_def_cfa 7, 8
	ret
	.cfi_endproc
.LFE4571:
	.size	_ZNK9__gnu_cxx17__normal_iteratorIP4nodeSt6vectorIS1_SaIS1_EEEdeEv, .-_ZNK9__gnu_cxx17__normal_iteratorIP4nodeSt6vectorIS1_SaIS1_EEEdeEv
	.section	.text._ZNSt3mapI4nodeSt6vectorIS0_SaIS0_EESt4lessIS0_ESaISt4pairIKS0_S3_EEEixERS7_,"axG",@progbits,_ZNSt3mapI4nodeSt6vectorIS0_SaIS0_EESt4lessIS0_ESaISt4pairIKS0_S3_EEEixERS7_,comdat
	.align 2
	.weak	_ZNSt3mapI4nodeSt6vectorIS0_SaIS0_EESt4lessIS0_ESaISt4pairIKS0_S3_EEEixERS7_
	.type	_ZNSt3mapI4nodeSt6vectorIS0_SaIS0_EESt4lessIS0_ESaISt4pairIKS0_S3_EEEixERS7_, @function
_ZNSt3mapI4nodeSt6vectorIS0_SaIS0_EESt4lessIS0_ESaISt4pairIKS0_S3_EEEixERS7_:
.LFB4575:
	.cfi_startproc
	endbr64
	pushq	%rbp
	.cfi_def_cfa_offset 16
	.cfi_offset 6, -16
	movq	%rsp, %rbp
	.cfi_def_cfa_register 6
	pushq	%rbx
	subq	$72, %rsp
	.cfi_offset 3, -24
	movq	%rdi, -72(%rbp)
	movq	%rsi, -80(%rbp)
	movq	%fs:40, %rax
	movq	%rax, -24(%rbp)
	xorl	%eax, %eax
	movq	-80(%rbp), %rdx
	movq	-72(%rbp), %rax
	movq	%rdx, %rsi
	movq	%rax, %rdi
	call	_ZNSt3mapI4nodeSt6vectorIS0_SaIS0_EESt4lessIS0_ESaISt4pairIKS0_S3_EEE11lower_boundERS7_
	movq	%rax, -48(%rbp)
	movq	-72(%rbp), %rax
	movq	%rax, %rdi
	call	_ZNSt3mapI4nodeSt6vectorIS0_SaIS0_EESt4lessIS0_ESaISt4pairIKS0_S3_EEE3endEv
	movq	%rax, -32(%rbp)
	leaq	-32(%rbp), %rdx
	leaq	-48(%rbp), %rax
	movq	%rdx, %rsi
	movq	%rax, %rdi
	call	_ZSteqRKSt17_Rb_tree_iteratorISt4pairIK4nodeSt6vectorIS1_SaIS1_EEEES9_
	testb	%al, %al
	jne	.L182
	movq	-72(%rbp), %rax
	movq	%rax, %rdi
	call	_ZNKSt3mapI4nodeSt6vectorIS0_SaIS0_EESt4lessIS0_ESaISt4pairIKS0_S3_EEE8key_compEv
	leaq	-48(%rbp), %rax
	movq	%rax, %rdi
	call	_ZNKSt17_Rb_tree_iteratorISt4pairIK4nodeSt6vectorIS1_SaIS1_EEEEdeEv
	movq	%rax, %rdx
	movq	-80(%rbp), %rcx
	leaq	-40(%rbp), %rax
	movq	%rcx, %rsi
	movq	%rax, %rdi
	call	_ZNKSt4lessI4nodeEclERKS0_S3_
	testb	%al, %al
	je	.L183
.L182:
	movl	$1, %eax
	jmp	.L184
.L183:
	movl	$0, %eax
.L184:
	testb	%al, %al
	je	.L185
	movq	-72(%rbp), %rbx
	movq	-80(%rbp), %rdx
	leaq	-40(%rbp), %rax
	movq	%rdx, %rsi
	movq	%rax, %rdi
	call	_ZNSt5tupleIJRK4nodeEEC1ILb1ELb1EEES2_
	leaq	-48(%rbp), %rdx
	leaq	-32(%rbp), %rax
	movq	%rdx, %rsi
	movq	%rax, %rdi
	call	_ZNSt23_Rb_tree_const_iteratorISt4pairIK4nodeSt6vectorIS1_SaIS1_EEEEC1ERKSt17_Rb_tree_iteratorIS6_E
	leaq	-49(%rbp), %rcx
	leaq	-40(%rbp), %rdx
	movq	-32(%rbp), %rax
	movq	%rcx, %r8
	movq	%rdx, %rcx
	leaq	_ZSt19piecewise_construct(%rip), %rdx
	movq	%rax, %rsi
	movq	%rbx, %rdi
	call	_ZNSt8_Rb_treeI4nodeSt4pairIKS0_St6vectorIS0_SaIS0_EEESt10_Select1stIS6_ESt4lessIS0_ESaIS6_EE22_M_emplace_hint_uniqueIJRKSt21piecewise_construct_tSt5tupleIJRS2_EESH_IJEEEEESt17_Rb_tree_iteratorIS6_ESt23_Rb_tree_const_iteratorIS6_EDpOT_
	movq	%rax, -48(%rbp)
.L185:
	leaq	-48(%rbp), %rax
	movq	%rax, %rdi
	call	_ZNKSt17_Rb_tree_iteratorISt4pairIK4nodeSt6vectorIS1_SaIS1_EEEEdeEv
	addq	$40, %rax
	movq	-24(%rbp), %rdx
	subq	%fs:40, %rdx
	je	.L187
	call	__stack_chk_fail@PLT
.L187:
	movq	-8(%rbp), %rbx
	leave
	.cfi_def_cfa 7, 8
	ret
	.cfi_endproc
.LFE4575:
	.size	_ZNSt3mapI4nodeSt6vectorIS0_SaIS0_EESt4lessIS0_ESaISt4pairIKS0_S3_EEEixERS7_, .-_ZNSt3mapI4nodeSt6vectorIS0_SaIS0_EESt4lessIS0_ESaISt4pairIKS0_S3_EEEixERS7_
	.section	.text._ZNSt6vectorI4nodeSaIS0_EE3endEv,"axG",@progbits,_ZNSt6vectorI4nodeSaIS0_EE3endEv,comdat
	.align 2
	.weak	_ZNSt6vectorI4nodeSaIS0_EE3endEv
	.type	_ZNSt6vectorI4nodeSaIS0_EE3endEv, @function
_ZNSt6vectorI4nodeSaIS0_EE3endEv:
.LFB4582:
	.cfi_startproc
	endbr64
	pushq	%rbp
	.cfi_def_cfa_offset 16
	.cfi_offset 6, -16
	movq	%rsp, %rbp
	.cfi_def_cfa_register 6
	subq	$32, %rsp
	movq	%rdi, -24(%rbp)
	movq	%fs:40, %rax
	movq	%rax, -8(%rbp)
	xorl	%eax, %eax
	movq	-24(%rbp), %rax
	leaq	8(%rax), %rdx
	leaq	-16(%rbp), %rax
	movq	%rdx, %rsi
	movq	%rax, %rdi
	call	_ZN9__gnu_cxx17__normal_iteratorIP4nodeSt6vectorIS1_SaIS1_EEEC1ERKS2_
	movq	-16(%rbp), %rax
	movq	-8(%rbp), %rdx
	subq	%fs:40, %rdx
	je	.L190
	call	__stack_chk_fail@PLT
.L190:
	leave
	.cfi_def_cfa 7, 8
	ret
	.cfi_endproc
.LFE4582:
	.size	_ZNSt6vectorI4nodeSaIS0_EE3endEv, .-_ZNSt6vectorI4nodeSaIS0_EE3endEv
	.section	.text._ZN9__gnu_cxxneIP4nodeSt6vectorIS1_SaIS1_EEEEbRKNS_17__normal_iteratorIT_T0_EESB_,"axG",@progbits,_ZN9__gnu_cxxneIP4nodeSt6vectorIS1_SaIS1_EEEEbRKNS_17__normal_iteratorIT_T0_EESB_,comdat
	.weak	_ZN9__gnu_cxxneIP4nodeSt6vectorIS1_SaIS1_EEEEbRKNS_17__normal_iteratorIT_T0_EESB_
	.type	_ZN9__gnu_cxxneIP4nodeSt6vectorIS1_SaIS1_EEEEbRKNS_17__normal_iteratorIT_T0_EESB_, @function
_ZN9__gnu_cxxneIP4nodeSt6vectorIS1_SaIS1_EEEEbRKNS_17__normal_iteratorIT_T0_EESB_:
.LFB4583:
	.cfi_startproc
	endbr64
	pushq	%rbp
	.cfi_def_cfa_offset 16
	.cfi_offset 6, -16
	movq	%rsp, %rbp
	.cfi_def_cfa_register 6
	pushq	%rbx
	subq	$24, %rsp
	.cfi_offset 3, -24
	movq	%rdi, -24(%rbp)
	movq	%rsi, -32(%rbp)
	movq	-24(%rbp), %rax
	movq	%rax, %rdi
	call	_ZNK9__gnu_cxx17__normal_iteratorIP4nodeSt6vectorIS1_SaIS1_EEE4baseEv
	movq	(%rax), %rbx
	movq	-32(%rbp), %rax
	movq	%rax, %rdi
	call	_ZNK9__gnu_cxx17__normal_iteratorIP4nodeSt6vectorIS1_SaIS1_EEE4baseEv
	movq	(%rax), %rax
	cmpq	%rax, %rbx
	setne	%al
	movq	-8(%rbp), %rbx
	leave
	.cfi_def_cfa 7, 8
	ret
	.cfi_endproc
.LFE4583:
	.size	_ZN9__gnu_cxxneIP4nodeSt6vectorIS1_SaIS1_EEEEbRKNS_17__normal_iteratorIT_T0_EESB_, .-_ZN9__gnu_cxxneIP4nodeSt6vectorIS1_SaIS1_EEEEbRKNS_17__normal_iteratorIT_T0_EESB_
	.section	.text._ZN9__gnu_cxx17__normal_iteratorIP4nodeSt6vectorIS1_SaIS1_EEEppEv,"axG",@progbits,_ZN9__gnu_cxx17__normal_iteratorIP4nodeSt6vectorIS1_SaIS1_EEEppEv,comdat
	.align 2
	.weak	_ZN9__gnu_cxx17__normal_iteratorIP4nodeSt6vectorIS1_SaIS1_EEEppEv
	.type	_ZN9__gnu_cxx17__normal_iteratorIP4nodeSt6vectorIS1_SaIS1_EEEppEv, @function
_ZN9__gnu_cxx17__normal_iteratorIP4nodeSt6vectorIS1_SaIS1_EEEppEv:
.LFB4584:
	.cfi_startproc
	endbr64
	pushq	%rbp
	.cfi_def_cfa_offset 16
	.cfi_offset 6, -16
	movq	%rsp, %rbp
	.cfi_def_cfa_register 6
	movq	%rdi, -8(%rbp)
	movq	-8(%rbp), %rax
	movq	(%rax), %rax
	leaq	40(%rax), %rdx
	movq	-8(%rbp), %rax
	movq	%rdx, (%rax)
	movq	-8(%rbp), %rax
	popq	%rbp
	.cfi_def_cfa 7, 8
	ret
	.cfi_endproc
.LFE4584:
	.size	_ZN9__gnu_cxx17__normal_iteratorIP4nodeSt6vectorIS1_SaIS1_EEEppEv, .-_ZN9__gnu_cxx17__normal_iteratorIP4nodeSt6vectorIS1_SaIS1_EEEppEv
	.section	.text._ZNSt6vectorI4nodeSaIS0_EE9push_backERKS0_,"axG",@progbits,_ZNSt6vectorI4nodeSaIS0_EE9push_backERKS0_,comdat
	.align 2
	.weak	_ZNSt6vectorI4nodeSaIS0_EE9push_backERKS0_
	.type	_ZNSt6vectorI4nodeSaIS0_EE9push_backERKS0_, @function
_ZNSt6vectorI4nodeSaIS0_EE9push_backERKS0_:
.LFB4585:
	.cfi_startproc
	endbr64
	pushq	%rbp
	.cfi_def_cfa_offset 16
	.cfi_offset 6, -16
	movq	%rsp, %rbp
	.cfi_def_cfa_register 6
	subq	$16, %rsp
	movq	%rdi, -8(%rbp)
	movq	%rsi, -16(%rbp)
	movq	-8(%rbp), %rax
	movq	8(%rax), %rdx
	movq	-8(%rbp), %rax
	movq	16(%rax), %rax
	cmpq	%rax, %rdx
	je	.L196
	movq	-8(%rbp), %rax
	movq	8(%rax), %rcx
	movq	-8(%rbp), %rax
	movq	-16(%rbp), %rdx
	movq	%rcx, %rsi
	movq	%rax, %rdi
	call	_ZNSt16allocator_traitsISaI4nodeEE9constructIS0_JRKS0_EEEvRS1_PT_DpOT0_
	movq	-8(%rbp), %rax
	movq	8(%rax), %rax
	leaq	40(%rax), %rdx
	movq	-8(%rbp), %rax
	movq	%rdx, 8(%rax)
	jmp	.L198
.L196:
	movq	-8(%rbp), %rax
	movq	%rax, %rdi
	call	_ZNSt6vectorI4nodeSaIS0_EE3endEv
	movq	%rax, %rcx
	movq	-16(%rbp), %rdx
	movq	-8(%rbp), %rax
	movq	%rcx, %rsi
	movq	%rax, %rdi
	call	_ZNSt6vectorI4nodeSaIS0_EE17_M_realloc_insertIJRKS0_EEEvN9__gnu_cxx17__normal_iteratorIPS0_S2_EEDpOT_
.L198:
	nop
	leave
	.cfi_def_cfa 7, 8
	ret
	.cfi_endproc
.LFE4585:
	.size	_ZNSt6vectorI4nodeSaIS0_EE9push_backERKS0_, .-_ZNSt6vectorI4nodeSaIS0_EE9push_backERKS0_
	.section	.text._ZN9__gnu_cxx17__normal_iteratorIPK4nodeSt6vectorIS1_SaIS1_EEEC2IPS1_vEERKNS0_IT_S6_EE,"axG",@progbits,_ZN9__gnu_cxx17__normal_iteratorIPK4nodeSt6vectorIS1_SaIS1_EEEC5IPS1_vEERKNS0_IT_S6_EE,comdat
	.align 2
	.weak	_ZN9__gnu_cxx17__normal_iteratorIPK4nodeSt6vectorIS1_SaIS1_EEEC2IPS1_vEERKNS0_IT_S6_EE
	.type	_ZN9__gnu_cxx17__normal_iteratorIPK4nodeSt6vectorIS1_SaIS1_EEEC2IPS1_vEERKNS0_IT_S6_EE, @function
_ZN9__gnu_cxx17__normal_iteratorIPK4nodeSt6vectorIS1_SaIS1_EEEC2IPS1_vEERKNS0_IT_S6_EE:
.LFB4588:
	.cfi_startproc
	endbr64
	pushq	%rbp
	.cfi_def_cfa_offset 16
	.cfi_offset 6, -16
	movq	%rsp, %rbp
	.cfi_def_cfa_register 6
	subq	$16, %rsp
	movq	%rdi, -8(%rbp)
	movq	%rsi, -16(%rbp)
	movq	-16(%rbp), %rax
	movq	%rax, %rdi
	call	_ZNK9__gnu_cxx17__normal_iteratorIP4nodeSt6vectorIS1_SaIS1_EEE4baseEv
	movq	(%rax), %rdx
	movq	-8(%rbp), %rax
	movq	%rdx, (%rax)
	nop
	leave
	.cfi_def_cfa 7, 8
	ret
	.cfi_endproc
.LFE4588:
	.size	_ZN9__gnu_cxx17__normal_iteratorIPK4nodeSt6vectorIS1_SaIS1_EEEC2IPS1_vEERKNS0_IT_S6_EE, .-_ZN9__gnu_cxx17__normal_iteratorIPK4nodeSt6vectorIS1_SaIS1_EEEC2IPS1_vEERKNS0_IT_S6_EE
	.weak	_ZN9__gnu_cxx17__normal_iteratorIPK4nodeSt6vectorIS1_SaIS1_EEEC1IPS1_vEERKNS0_IT_S6_EE
	.set	_ZN9__gnu_cxx17__normal_iteratorIPK4nodeSt6vectorIS1_SaIS1_EEEC1IPS1_vEERKNS0_IT_S6_EE,_ZN9__gnu_cxx17__normal_iteratorIPK4nodeSt6vectorIS1_SaIS1_EEEC2IPS1_vEERKNS0_IT_S6_EE
	.section	.text._ZNSt6vectorI4nodeSaIS0_EE5eraseEN9__gnu_cxx17__normal_iteratorIPKS0_S2_EE,"axG",@progbits,_ZNSt6vectorI4nodeSaIS0_EE5eraseEN9__gnu_cxx17__normal_iteratorIPKS0_S2_EE,comdat
	.align 2
	.weak	_ZNSt6vectorI4nodeSaIS0_EE5eraseEN9__gnu_cxx17__normal_iteratorIPKS0_S2_EE
	.type	_ZNSt6vectorI4nodeSaIS0_EE5eraseEN9__gnu_cxx17__normal_iteratorIPKS0_S2_EE, @function
_ZNSt6vectorI4nodeSaIS0_EE5eraseEN9__gnu_cxx17__normal_iteratorIPKS0_S2_EE:
.LFB4590:
	.cfi_startproc
	endbr64
	pushq	%rbp
	.cfi_def_cfa_offset 16
	.cfi_offset 6, -16
	movq	%rsp, %rbp
	.cfi_def_cfa_register 6
	pushq	%rbx
	subq	$56, %rsp
	.cfi_offset 3, -24
	movq	%rdi, -56(%rbp)
	movq	%rsi, -64(%rbp)
	movq	%fs:40, %rax
	movq	%rax, -24(%rbp)
	xorl	%eax, %eax
	movq	-56(%rbp), %rax
	movq	%rax, %rdi
	call	_ZNKSt6vectorI4nodeSaIS0_EE6cbeginEv
	movq	%rax, -32(%rbp)
	leaq	-32(%rbp), %rdx
	leaq	-64(%rbp), %rax
	movq	%rdx, %rsi
	movq	%rax, %rdi
	call	_ZN9__gnu_cxxmiIPK4nodeSt6vectorIS1_SaIS1_EEEENS_17__normal_iteratorIT_T0_E15difference_typeERKSA_SD_
	movq	%rax, %rbx
	movq	-56(%rbp), %rax
	movq	%rax, %rdi
	call	_ZNSt6vectorI4nodeSaIS0_EE5beginEv
	movq	%rax, -40(%rbp)
	leaq	-40(%rbp), %rax
	movq	%rbx, %rsi
	movq	%rax, %rdi
	call	_ZNK9__gnu_cxx17__normal_iteratorIP4nodeSt6vectorIS1_SaIS1_EEEplEl
	movq	%rax, %rdx
	movq	-56(%rbp), %rax
	movq	%rdx, %rsi
	movq	%rax, %rdi
	call	_ZNSt6vectorI4nodeSaIS0_EE8_M_eraseEN9__gnu_cxx17__normal_iteratorIPS0_S2_EE
	movq	-24(%rbp), %rdx
	subq	%fs:40, %rdx
	je	.L202
	call	__stack_chk_fail@PLT
.L202:
	movq	-8(%rbp), %rbx
	leave
	.cfi_def_cfa 7, 8
	ret
	.cfi_endproc
.LFE4590:
	.size	_ZNSt6vectorI4nodeSaIS0_EE5eraseEN9__gnu_cxx17__normal_iteratorIPKS0_S2_EE, .-_ZNSt6vectorI4nodeSaIS0_EE5eraseEN9__gnu_cxx17__normal_iteratorIPKS0_S2_EE
	.section	.text._ZNSt3mapI4nodeSt6vectorIS0_SaIS0_EESt4lessIS0_ESaISt4pairIKS0_S3_EEE5beginEv,"axG",@progbits,_ZNSt3mapI4nodeSt6vectorIS0_SaIS0_EESt4lessIS0_ESaISt4pairIKS0_S3_EEE5beginEv,comdat
	.align 2
	.weak	_ZNSt3mapI4nodeSt6vectorIS0_SaIS0_EESt4lessIS0_ESaISt4pairIKS0_S3_EEE5beginEv
	.type	_ZNSt3mapI4nodeSt6vectorIS0_SaIS0_EESt4lessIS0_ESaISt4pairIKS0_S3_EEE5beginEv, @function
_ZNSt3mapI4nodeSt6vectorIS0_SaIS0_EESt4lessIS0_ESaISt4pairIKS0_S3_EEE5beginEv:
.LFB4591:
	.cfi_startproc
	endbr64
	pushq	%rbp
	.cfi_def_cfa_offset 16
	.cfi_offset 6, -16
	movq	%rsp, %rbp
	.cfi_def_cfa_register 6
	subq	$16, %rsp
	movq	%rdi, -8(%rbp)
	movq	-8(%rbp), %rax
	movq	%rax, %rdi
	call	_ZNSt8_Rb_treeI4nodeSt4pairIKS0_St6vectorIS0_SaIS0_EEESt10_Select1stIS6_ESt4lessIS0_ESaIS6_EE5beginEv
	leave
	.cfi_def_cfa 7, 8
	ret
	.cfi_endproc
.LFE4591:
	.size	_ZNSt3mapI4nodeSt6vectorIS0_SaIS0_EESt4lessIS0_ESaISt4pairIKS0_S3_EEE5beginEv, .-_ZNSt3mapI4nodeSt6vectorIS0_SaIS0_EESt4lessIS0_ESaISt4pairIKS0_S3_EEE5beginEv
	.section	.text._ZNSt3mapI4nodeSt6vectorIS0_SaIS0_EESt4lessIS0_ESaISt4pairIKS0_S3_EEE3endEv,"axG",@progbits,_ZNSt3mapI4nodeSt6vectorIS0_SaIS0_EESt4lessIS0_ESaISt4pairIKS0_S3_EEE3endEv,comdat
	.align 2
	.weak	_ZNSt3mapI4nodeSt6vectorIS0_SaIS0_EESt4lessIS0_ESaISt4pairIKS0_S3_EEE3endEv
	.type	_ZNSt3mapI4nodeSt6vectorIS0_SaIS0_EESt4lessIS0_ESaISt4pairIKS0_S3_EEE3endEv, @function
_ZNSt3mapI4nodeSt6vectorIS0_SaIS0_EESt4lessIS0_ESaISt4pairIKS0_S3_EEE3endEv:
.LFB4592:
	.cfi_startproc
	endbr64
	pushq	%rbp
	.cfi_def_cfa_offset 16
	.cfi_offset 6, -16
	movq	%rsp, %rbp
	.cfi_def_cfa_register 6
	subq	$16, %rsp
	movq	%rdi, -8(%rbp)
	movq	-8(%rbp), %rax
	movq	%rax, %rdi
	call	_ZNSt8_Rb_treeI4nodeSt4pairIKS0_St6vectorIS0_SaIS0_EEESt10_Select1stIS6_ESt4lessIS0_ESaIS6_EE3endEv
	leave
	.cfi_def_cfa 7, 8
	ret
	.cfi_endproc
.LFE4592:
	.size	_ZNSt3mapI4nodeSt6vectorIS0_SaIS0_EESt4lessIS0_ESaISt4pairIKS0_S3_EEE3endEv, .-_ZNSt3mapI4nodeSt6vectorIS0_SaIS0_EESt4lessIS0_ESaISt4pairIKS0_S3_EEE3endEv
	.section	.text._ZStneRKSt17_Rb_tree_iteratorISt4pairIK4nodeSt6vectorIS1_SaIS1_EEEES9_,"axG",@progbits,_ZStneRKSt17_Rb_tree_iteratorISt4pairIK4nodeSt6vectorIS1_SaIS1_EEEES9_,comdat
	.weak	_ZStneRKSt17_Rb_tree_iteratorISt4pairIK4nodeSt6vectorIS1_SaIS1_EEEES9_
	.type	_ZStneRKSt17_Rb_tree_iteratorISt4pairIK4nodeSt6vectorIS1_SaIS1_EEEES9_, @function
_ZStneRKSt17_Rb_tree_iteratorISt4pairIK4nodeSt6vectorIS1_SaIS1_EEEES9_:
.LFB4593:
	.cfi_startproc
	endbr64
	pushq	%rbp
	.cfi_def_cfa_offset 16
	.cfi_offset 6, -16
	movq	%rsp, %rbp
	.cfi_def_cfa_register 6
	movq	%rdi, -8(%rbp)
	movq	%rsi, -16(%rbp)
	movq	-8(%rbp), %rax
	movq	(%rax), %rdx
	movq	-16(%rbp), %rax
	movq	(%rax), %rax
	cmpq	%rax, %rdx
	setne	%al
	popq	%rbp
	.cfi_def_cfa 7, 8
	ret
	.cfi_endproc
.LFE4593:
	.size	_ZStneRKSt17_Rb_tree_iteratorISt4pairIK4nodeSt6vectorIS1_SaIS1_EEEES9_, .-_ZStneRKSt17_Rb_tree_iteratorISt4pairIK4nodeSt6vectorIS1_SaIS1_EEEES9_
	.section	.text._ZNSt17_Rb_tree_iteratorISt4pairIK4nodeSt6vectorIS1_SaIS1_EEEEppEv,"axG",@progbits,_ZNSt17_Rb_tree_iteratorISt4pairIK4nodeSt6vectorIS1_SaIS1_EEEEppEv,comdat
	.align 2
	.weak	_ZNSt17_Rb_tree_iteratorISt4pairIK4nodeSt6vectorIS1_SaIS1_EEEEppEv
	.type	_ZNSt17_Rb_tree_iteratorISt4pairIK4nodeSt6vectorIS1_SaIS1_EEEEppEv, @function
_ZNSt17_Rb_tree_iteratorISt4pairIK4nodeSt6vectorIS1_SaIS1_EEEEppEv:
.LFB4594:
	.cfi_startproc
	endbr64
	pushq	%rbp
	.cfi_def_cfa_offset 16
	.cfi_offset 6, -16
	movq	%rsp, %rbp
	.cfi_def_cfa_register 6
	subq	$16, %rsp
	movq	%rdi, -8(%rbp)
	movq	-8(%rbp), %rax
	movq	(%rax), %rax
	movq	%rax, %rdi
	call	_ZSt18_Rb_tree_incrementPSt18_Rb_tree_node_base@PLT
	movq	-8(%rbp), %rdx
	movq	%rax, (%rdx)
	movq	-8(%rbp), %rax
	leave
	.cfi_def_cfa 7, 8
	ret
	.cfi_endproc
.LFE4594:
	.size	_ZNSt17_Rb_tree_iteratorISt4pairIK4nodeSt6vectorIS1_SaIS1_EEEEppEv, .-_ZNSt17_Rb_tree_iteratorISt4pairIK4nodeSt6vectorIS1_SaIS1_EEEEppEv
	.section	.text._ZNSt3mapI4nodeSt6vectorIS0_SaIS0_EESt4lessIS0_ESaISt4pairIKS0_S3_EEE5eraseB5cxx11ESt17_Rb_tree_iteratorIS8_E,"axG",@progbits,_ZNSt3mapI4nodeSt6vectorIS0_SaIS0_EESt4lessIS0_ESaISt4pairIKS0_S3_EEE5eraseB5cxx11ESt17_Rb_tree_iteratorIS8_E,comdat
	.align 2
	.weak	_ZNSt3mapI4nodeSt6vectorIS0_SaIS0_EESt4lessIS0_ESaISt4pairIKS0_S3_EEE5eraseB5cxx11ESt17_Rb_tree_iteratorIS8_E
	.type	_ZNSt3mapI4nodeSt6vectorIS0_SaIS0_EESt4lessIS0_ESaISt4pairIKS0_S3_EEE5eraseB5cxx11ESt17_Rb_tree_iteratorIS8_E, @function
_ZNSt3mapI4nodeSt6vectorIS0_SaIS0_EESt4lessIS0_ESaISt4pairIKS0_S3_EEE5eraseB5cxx11ESt17_Rb_tree_iteratorIS8_E:
.LFB4595:
	.cfi_startproc
	endbr64
	pushq	%rbp
	.cfi_def_cfa_offset 16
	.cfi_offset 6, -16
	movq	%rsp, %rbp
	.cfi_def_cfa_register 6
	subq	$16, %rsp
	movq	%rdi, -8(%rbp)
	movq	%rsi, -16(%rbp)
	movq	-8(%rbp), %rax
	movq	-16(%rbp), %rdx
	movq	%rdx, %rsi
	movq	%rax, %rdi
	call	_ZNSt8_Rb_treeI4nodeSt4pairIKS0_St6vectorIS0_SaIS0_EEESt10_Select1stIS6_ESt4lessIS0_ESaIS6_EE5eraseB5cxx11ESt17_Rb_tree_iteratorIS6_E
	leave
	.cfi_def_cfa 7, 8
	ret
	.cfi_endproc
.LFE4595:
	.size	_ZNSt3mapI4nodeSt6vectorIS0_SaIS0_EESt4lessIS0_ESaISt4pairIKS0_S3_EEE5eraseB5cxx11ESt17_Rb_tree_iteratorIS8_E, .-_ZNSt3mapI4nodeSt6vectorIS0_SaIS0_EESt4lessIS0_ESaISt4pairIKS0_S3_EEE5eraseB5cxx11ESt17_Rb_tree_iteratorIS8_E
	.section	.text._ZNSaISt13_Rb_tree_nodeISt4pairIK4nodeSt6vectorIS1_SaIS1_EEEEEC2ERKS8_,"axG",@progbits,_ZNSaISt13_Rb_tree_nodeISt4pairIK4nodeSt6vectorIS1_SaIS1_EEEEEC5ERKS8_,comdat
	.align 2
	.weak	_ZNSaISt13_Rb_tree_nodeISt4pairIK4nodeSt6vectorIS1_SaIS1_EEEEEC2ERKS8_
	.type	_ZNSaISt13_Rb_tree_nodeISt4pairIK4nodeSt6vectorIS1_SaIS1_EEEEEC2ERKS8_, @function
_ZNSaISt13_Rb_tree_nodeISt4pairIK4nodeSt6vectorIS1_SaIS1_EEEEEC2ERKS8_:
.LFB4597:
	.cfi_startproc
	endbr64
	pushq	%rbp
	.cfi_def_cfa_offset 16
	.cfi_offset 6, -16
	movq	%rsp, %rbp
	.cfi_def_cfa_register 6
	subq	$16, %rsp
	movq	%rdi, -8(%rbp)
	movq	%rsi, -16(%rbp)
	movq	-16(%rbp), %rdx
	movq	-8(%rbp), %rax
	movq	%rdx, %rsi
	movq	%rax, %rdi
	call	_ZNSt15__new_allocatorISt13_Rb_tree_nodeISt4pairIK4nodeSt6vectorIS2_SaIS2_EEEEEC2ERKS9_
	nop
	leave
	.cfi_def_cfa 7, 8
	ret
	.cfi_endproc
.LFE4597:
	.size	_ZNSaISt13_Rb_tree_nodeISt4pairIK4nodeSt6vectorIS1_SaIS1_EEEEEC2ERKS8_, .-_ZNSaISt13_Rb_tree_nodeISt4pairIK4nodeSt6vectorIS1_SaIS1_EEEEEC2ERKS8_
	.weak	_ZNSaISt13_Rb_tree_nodeISt4pairIK4nodeSt6vectorIS1_SaIS1_EEEEEC1ERKS8_
	.set	_ZNSaISt13_Rb_tree_nodeISt4pairIK4nodeSt6vectorIS1_SaIS1_EEEEEC1ERKS8_,_ZNSaISt13_Rb_tree_nodeISt4pairIK4nodeSt6vectorIS1_SaIS1_EEEEEC2ERKS8_
	.section	.text._ZNSaISt13_Rb_tree_nodeISt4pairIK4nodeSt6vectorIS1_SaIS1_EEEEED2Ev,"axG",@progbits,_ZNSaISt13_Rb_tree_nodeISt4pairIK4nodeSt6vectorIS1_SaIS1_EEEEED5Ev,comdat
	.align 2
	.weak	_ZNSaISt13_Rb_tree_nodeISt4pairIK4nodeSt6vectorIS1_SaIS1_EEEEED2Ev
	.type	_ZNSaISt13_Rb_tree_nodeISt4pairIK4nodeSt6vectorIS1_SaIS1_EEEEED2Ev, @function
_ZNSaISt13_Rb_tree_nodeISt4pairIK4nodeSt6vectorIS1_SaIS1_EEEEED2Ev:
.LFB4600:
	.cfi_startproc
	endbr64
	pushq	%rbp
	.cfi_def_cfa_offset 16
	.cfi_offset 6, -16
	movq	%rsp, %rbp
	.cfi_def_cfa_register 6
	subq	$16, %rsp
	movq	%rdi, -8(%rbp)
	movq	-8(%rbp), %rax
	movq	%rax, %rdi
	call	_ZNSt15__new_allocatorISt13_Rb_tree_nodeISt4pairIK4nodeSt6vectorIS2_SaIS2_EEEEED2Ev
	nop
	leave
	.cfi_def_cfa 7, 8
	ret
	.cfi_endproc
.LFE4600:
	.size	_ZNSaISt13_Rb_tree_nodeISt4pairIK4nodeSt6vectorIS1_SaIS1_EEEEED2Ev, .-_ZNSaISt13_Rb_tree_nodeISt4pairIK4nodeSt6vectorIS1_SaIS1_EEEEED2Ev
	.weak	_ZNSaISt13_Rb_tree_nodeISt4pairIK4nodeSt6vectorIS1_SaIS1_EEEEED1Ev
	.set	_ZNSaISt13_Rb_tree_nodeISt4pairIK4nodeSt6vectorIS1_SaIS1_EEEEED1Ev,_ZNSaISt13_Rb_tree_nodeISt4pairIK4nodeSt6vectorIS1_SaIS1_EEEEED2Ev
	.section	.text._ZSt4sizeISt3mapI4nodeSt6vectorIS1_SaIS1_EESt4lessIS1_ESaISt4pairIKS1_S4_EEEEDTcldtfp_4sizeEERKT_,"axG",@progbits,_ZSt4sizeISt3mapI4nodeSt6vectorIS1_SaIS1_EESt4lessIS1_ESaISt4pairIKS1_S4_EEEEDTcldtfp_4sizeEERKT_,comdat
	.weak	_ZSt4sizeISt3mapI4nodeSt6vectorIS1_SaIS1_EESt4lessIS1_ESaISt4pairIKS1_S4_EEEEDTcldtfp_4sizeEERKT_
	.type	_ZSt4sizeISt3mapI4nodeSt6vectorIS1_SaIS1_EESt4lessIS1_ESaISt4pairIKS1_S4_EEEEDTcldtfp_4sizeEERKT_, @function
_ZSt4sizeISt3mapI4nodeSt6vectorIS1_SaIS1_EESt4lessIS1_ESaISt4pairIKS1_S4_EEEEDTcldtfp_4sizeEERKT_:
.LFB4605:
	.cfi_startproc
	endbr64
	pushq	%rbp
	.cfi_def_cfa_offset 16
	.cfi_offset 6, -16
	movq	%rsp, %rbp
	.cfi_def_cfa_register 6
	subq	$16, %rsp
	movq	%rdi, -8(%rbp)
	movq	-8(%rbp), %rax
	movq	%rax, %rdi
	call	_ZNKSt3mapI4nodeSt6vectorIS0_SaIS0_EESt4lessIS0_ESaISt4pairIKS0_S3_EEE4sizeEv
	leave
	.cfi_def_cfa 7, 8
	ret
	.cfi_endproc
.LFE4605:
	.size	_ZSt4sizeISt3mapI4nodeSt6vectorIS1_SaIS1_EESt4lessIS1_ESaISt4pairIKS1_S4_EEEEDTcldtfp_4sizeEERKT_, .-_ZSt4sizeISt3mapI4nodeSt6vectorIS1_SaIS1_EESt4lessIS1_ESaISt4pairIKS1_S4_EEEEDTcldtfp_4sizeEERKT_
	.section	.text._ZSt3powImiEN9__gnu_cxx11__promote_2IDTplcvNS1_IT_XsrSt12__is_integerIS2_E7__valueEE6__typeELi0EcvNS1_IT0_XsrS3_IS7_E7__valueEE6__typeELi0EEXsrS3_ISB_E7__valueEE6__typeES2_S7_,"axG",@progbits,_ZSt3powImiEN9__gnu_cxx11__promote_2IDTplcvNS1_IT_XsrSt12__is_integerIS2_E7__valueEE6__typeELi0EcvNS1_IT0_XsrS3_IS7_E7__valueEE6__typeELi0EEXsrS3_ISB_E7__valueEE6__typeES2_S7_,comdat
	.weak	_ZSt3powImiEN9__gnu_cxx11__promote_2IDTplcvNS1_IT_XsrSt12__is_integerIS2_E7__valueEE6__typeELi0EcvNS1_IT0_XsrS3_IS7_E7__valueEE6__typeELi0EEXsrS3_ISB_E7__valueEE6__typeES2_S7_
	.type	_ZSt3powImiEN9__gnu_cxx11__promote_2IDTplcvNS1_IT_XsrSt12__is_integerIS2_E7__valueEE6__typeELi0EcvNS1_IT0_XsrS3_IS7_E7__valueEE6__typeELi0EEXsrS3_ISB_E7__valueEE6__typeES2_S7_, @function
_ZSt3powImiEN9__gnu_cxx11__promote_2IDTplcvNS1_IT_XsrSt12__is_integerIS2_E7__valueEE6__typeELi0EcvNS1_IT0_XsrS3_IS7_E7__valueEE6__typeELi0EEXsrS3_ISB_E7__valueEE6__typeES2_S7_:
.LFB4606:
	.cfi_startproc
	endbr64
	pushq	%rbp
	.cfi_def_cfa_offset 16
	.cfi_offset 6, -16
	movq	%rsp, %rbp
	.cfi_def_cfa_register 6
	subq	$16, %rsp
	movq	%rdi, -8(%rbp)
	movl	%esi, -12(%rbp)
	pxor	%xmm1, %xmm1
	cvtsi2sdl	-12(%rbp), %xmm1
	movq	-8(%rbp), %rax
	testq	%rax, %rax
	js	.L218
	pxor	%xmm2, %xmm2
	cvtsi2sdq	%rax, %xmm2
	movq	%xmm2, %rax
	jmp	.L219
.L218:
	movq	%rax, %rdx
	shrq	%rdx
	andl	$1, %eax
	orq	%rax, %rdx
	pxor	%xmm0, %xmm0
	cvtsi2sdq	%rdx, %xmm0
	addsd	%xmm0, %xmm0
	movq	%xmm0, %rax
.L219:
	movq	%rax, %xmm0
	call	pow@PLT
	movq	%xmm0, %rax
	movq	%rax, %xmm0
	leave
	.cfi_def_cfa 7, 8
	ret
	.cfi_endproc
.LFE4606:
	.size	_ZSt3powImiEN9__gnu_cxx11__promote_2IDTplcvNS1_IT_XsrSt12__is_integerIS2_E7__valueEE6__typeELi0EcvNS1_IT0_XsrS3_IS7_E7__valueEE6__typeELi0EEXsrS3_ISB_E7__valueEE6__typeES2_S7_, .-_ZSt3powImiEN9__gnu_cxx11__promote_2IDTplcvNS1_IT_XsrSt12__is_integerIS2_E7__valueEE6__typeELi0EcvNS1_IT0_XsrS3_IS7_E7__valueEE6__typeELi0EEXsrS3_ISB_E7__valueEE6__typeES2_S7_
	.section	.text._ZSt3logImEN9__gnu_cxx11__enable_ifIXsrSt12__is_integerIT_E7__valueEdE6__typeES3_,"axG",@progbits,_ZSt3logImEN9__gnu_cxx11__enable_ifIXsrSt12__is_integerIT_E7__valueEdE6__typeES3_,comdat
	.weak	_ZSt3logImEN9__gnu_cxx11__enable_ifIXsrSt12__is_integerIT_E7__valueEdE6__typeES3_
	.type	_ZSt3logImEN9__gnu_cxx11__enable_ifIXsrSt12__is_integerIT_E7__valueEdE6__typeES3_, @function
_ZSt3logImEN9__gnu_cxx11__enable_ifIXsrSt12__is_integerIT_E7__valueEdE6__typeES3_:
.LFB4607:
	.cfi_startproc
	endbr64
	pushq	%rbp
	.cfi_def_cfa_offset 16
	.cfi_offset 6, -16
	movq	%rsp, %rbp
	.cfi_def_cfa_register 6
	subq	$16, %rsp
	movq	%rdi, -8(%rbp)
	movq	-8(%rbp), %rax
	testq	%rax, %rax
	js	.L222
	pxor	%xmm1, %xmm1
	cvtsi2sdq	%rax, %xmm1
	movq	%xmm1, %rax
	jmp	.L223
.L222:
	movq	%rax, %rdx
	shrq	%rdx
	andl	$1, %eax
	orq	%rax, %rdx
	pxor	%xmm0, %xmm0
	cvtsi2sdq	%rdx, %xmm0
	addsd	%xmm0, %xmm0
	movq	%xmm0, %rax
.L223:
	movq	%rax, %xmm0
	call	log@PLT
	movq	%xmm0, %rax
	movq	%rax, %xmm0
	leave
	.cfi_def_cfa 7, 8
	ret
	.cfi_endproc
.LFE4607:
	.size	_ZSt3logImEN9__gnu_cxx11__enable_ifIXsrSt12__is_integerIT_E7__valueEdE6__typeES3_, .-_ZSt3logImEN9__gnu_cxx11__enable_ifIXsrSt12__is_integerIT_E7__valueEdE6__typeES3_
	.section	.text._ZNSt8_Rb_treeI4nodeSt4pairIKS0_St6vectorIS0_SaIS0_EEESt10_Select1stIS6_ESt4lessIS0_ESaIS6_EE13_Rb_tree_implISA_Lb1EEC2Ev,"axG",@progbits,_ZNSt8_Rb_treeI4nodeSt4pairIKS0_St6vectorIS0_SaIS0_EEESt10_Select1stIS6_ESt4lessIS0_ESaIS6_EE13_Rb_tree_implISA_Lb1EEC5Ev,comdat
	.align 2
	.weak	_ZNSt8_Rb_treeI4nodeSt4pairIKS0_St6vectorIS0_SaIS0_EEESt10_Select1stIS6_ESt4lessIS0_ESaIS6_EE13_Rb_tree_implISA_Lb1EEC2Ev
	.type	_ZNSt8_Rb_treeI4nodeSt4pairIKS0_St6vectorIS0_SaIS0_EEESt10_Select1stIS6_ESt4lessIS0_ESaIS6_EE13_Rb_tree_implISA_Lb1EEC2Ev, @function
_ZNSt8_Rb_treeI4nodeSt4pairIKS0_St6vectorIS0_SaIS0_EEESt10_Select1stIS6_ESt4lessIS0_ESaIS6_EE13_Rb_tree_implISA_Lb1EEC2Ev:
.LFB4609:
	.cfi_startproc
	endbr64
	pushq	%rbp
	.cfi_def_cfa_offset 16
	.cfi_offset 6, -16
	movq	%rsp, %rbp
	.cfi_def_cfa_register 6
	subq	$16, %rsp
	movq	%rdi, -8(%rbp)
	movq	-8(%rbp), %rax
	movq	%rax, %rdi
	call	_ZNSaISt13_Rb_tree_nodeISt4pairIK4nodeSt6vectorIS1_SaIS1_EEEEEC2Ev
	movq	-8(%rbp), %rax
	movq	%rax, %rdi
	call	_ZNSt20_Rb_tree_key_compareISt4lessI4nodeEEC2Ev
	movq	-8(%rbp), %rax
	addq	$8, %rax
	movq	%rax, %rdi
	call	_ZNSt15_Rb_tree_headerC2Ev
	nop
	leave
	.cfi_def_cfa 7, 8
	ret
	.cfi_endproc
.LFE4609:
	.size	_ZNSt8_Rb_treeI4nodeSt4pairIKS0_St6vectorIS0_SaIS0_EEESt10_Select1stIS6_ESt4lessIS0_ESaIS6_EE13_Rb_tree_implISA_Lb1EEC2Ev, .-_ZNSt8_Rb_treeI4nodeSt4pairIKS0_St6vectorIS0_SaIS0_EEESt10_Select1stIS6_ESt4lessIS0_ESaIS6_EE13_Rb_tree_implISA_Lb1EEC2Ev
	.weak	_ZNSt8_Rb_treeI4nodeSt4pairIKS0_St6vectorIS0_SaIS0_EEESt10_Select1stIS6_ESt4lessIS0_ESaIS6_EE13_Rb_tree_implISA_Lb1EEC1Ev
	.set	_ZNSt8_Rb_treeI4nodeSt4pairIKS0_St6vectorIS0_SaIS0_EEESt10_Select1stIS6_ESt4lessIS0_ESaIS6_EE13_Rb_tree_implISA_Lb1EEC1Ev,_ZNSt8_Rb_treeI4nodeSt4pairIKS0_St6vectorIS0_SaIS0_EEESt10_Select1stIS6_ESt4lessIS0_ESaIS6_EE13_Rb_tree_implISA_Lb1EEC2Ev
	.section	.text._ZNSt8_Rb_treeI4nodeSt4pairIKS0_St6vectorIS0_SaIS0_EEESt10_Select1stIS6_ESt4lessIS0_ESaIS6_EEaSEOSC_,"axG",@progbits,_ZNSt8_Rb_treeI4nodeSt4pairIKS0_St6vectorIS0_SaIS0_EEESt10_Select1stIS6_ESt4lessIS0_ESaIS6_EEaSEOSC_,comdat
	.align 2
	.weak	_ZNSt8_Rb_treeI4nodeSt4pairIKS0_St6vectorIS0_SaIS0_EEESt10_Select1stIS6_ESt4lessIS0_ESaIS6_EEaSEOSC_
	.type	_ZNSt8_Rb_treeI4nodeSt4pairIKS0_St6vectorIS0_SaIS0_EEESt10_Select1stIS6_ESt4lessIS0_ESaIS6_EEaSEOSC_, @function
_ZNSt8_Rb_treeI4nodeSt4pairIKS0_St6vectorIS0_SaIS0_EEESt10_Select1stIS6_ESt4lessIS0_ESaIS6_EEaSEOSC_:
.LFB4611:
	.cfi_startproc
	.cfi_personality 0x9b,DW.ref.__gxx_personality_v0
	.cfi_lsda 0x1b,.LLSDA4611
	endbr64
	pushq	%rbp
	.cfi_def_cfa_offset 16
	.cfi_offset 6, -16
	movq	%rsp, %rbp
	.cfi_def_cfa_register 6
	subq	$16, %rsp
	movq	%rdi, -8(%rbp)
	movq	%rsi, -16(%rbp)
	movq	-16(%rbp), %rax
	movq	%rax, %rdi
	call	_ZSt4moveIRSt4lessI4nodeEEONSt16remove_referenceIT_E4typeEOS5_
	movq	-16(%rbp), %rdx
	movq	-8(%rbp), %rax
	movq	%rdx, %rsi
	movq	%rax, %rdi
	call	_ZNSt8_Rb_treeI4nodeSt4pairIKS0_St6vectorIS0_SaIS0_EEESt10_Select1stIS6_ESt4lessIS0_ESaIS6_EE14_M_move_assignERSC_St17integral_constantIbLb1EE
	movq	-8(%rbp), %rax
	leave
	.cfi_def_cfa 7, 8
	ret
	.cfi_endproc
.LFE4611:
	.section	.gcc_except_table
.LLSDA4611:
	.byte	0xff
	.byte	0xff
	.byte	0x1
	.uleb128 .LLSDACSE4611-.LLSDACSB4611
.LLSDACSB4611:
.LLSDACSE4611:
	.section	.text._ZNSt8_Rb_treeI4nodeSt4pairIKS0_St6vectorIS0_SaIS0_EEESt10_Select1stIS6_ESt4lessIS0_ESaIS6_EEaSEOSC_,"axG",@progbits,_ZNSt8_Rb_treeI4nodeSt4pairIKS0_St6vectorIS0_SaIS0_EEESt10_Select1stIS6_ESt4lessIS0_ESaIS6_EEaSEOSC_,comdat
	.size	_ZNSt8_Rb_treeI4nodeSt4pairIKS0_St6vectorIS0_SaIS0_EEESt10_Select1stIS6_ESt4lessIS0_ESaIS6_EEaSEOSC_, .-_ZNSt8_Rb_treeI4nodeSt4pairIKS0_St6vectorIS0_SaIS0_EEESt10_Select1stIS6_ESt4lessIS0_ESaIS6_EEaSEOSC_
	.section	.text._ZN9__gnu_cxx14__alloc_traitsISaISt13_Rb_tree_nodeISt4pairIK4nodeSt6vectorIS3_SaIS3_EEEEES9_E27_S_propagate_on_copy_assignEv,"axG",@progbits,_ZN9__gnu_cxx14__alloc_traitsISaISt13_Rb_tree_nodeISt4pairIK4nodeSt6vectorIS3_SaIS3_EEEEES9_E27_S_propagate_on_copy_assignEv,comdat
	.weak	_ZN9__gnu_cxx14__alloc_traitsISaISt13_Rb_tree_nodeISt4pairIK4nodeSt6vectorIS3_SaIS3_EEEEES9_E27_S_propagate_on_copy_assignEv
	.type	_ZN9__gnu_cxx14__alloc_traitsISaISt13_Rb_tree_nodeISt4pairIK4nodeSt6vectorIS3_SaIS3_EEEEES9_E27_S_propagate_on_copy_assignEv, @function
_ZN9__gnu_cxx14__alloc_traitsISaISt13_Rb_tree_nodeISt4pairIK4nodeSt6vectorIS3_SaIS3_EEEEES9_E27_S_propagate_on_copy_assignEv:
.LFB4613:
	.cfi_startproc
	endbr64
	pushq	%rbp
	.cfi_def_cfa_offset 16
	.cfi_offset 6, -16
	movq	%rsp, %rbp
	.cfi_def_cfa_register 6
	movl	$0, %eax
	popq	%rbp
	.cfi_def_cfa 7, 8
	ret
	.cfi_endproc
.LFE4613:
	.size	_ZN9__gnu_cxx14__alloc_traitsISaISt13_Rb_tree_nodeISt4pairIK4nodeSt6vectorIS3_SaIS3_EEEEES9_E27_S_propagate_on_copy_assignEv, .-_ZN9__gnu_cxx14__alloc_traitsISaISt13_Rb_tree_nodeISt4pairIK4nodeSt6vectorIS3_SaIS3_EEEEES9_E27_S_propagate_on_copy_assignEv
	.section	.text._ZNSt8_Rb_treeI4nodeSt4pairIKS0_St6vectorIS0_SaIS0_EEESt10_Select1stIS6_ESt4lessIS0_ESaIS6_EEaSERKSC_,"axG",@progbits,_ZNSt8_Rb_treeI4nodeSt4pairIKS0_St6vectorIS0_SaIS0_EEESt10_Select1stIS6_ESt4lessIS0_ESaIS6_EEaSERKSC_,comdat
	.align 2
	.weak	_ZNSt8_Rb_treeI4nodeSt4pairIKS0_St6vectorIS0_SaIS0_EEESt10_Select1stIS6_ESt4lessIS0_ESaIS6_EEaSERKSC_
	.type	_ZNSt8_Rb_treeI4nodeSt4pairIKS0_St6vectorIS0_SaIS0_EEESt10_Select1stIS6_ESt4lessIS0_ESaIS6_EEaSERKSC_, @function
_ZNSt8_Rb_treeI4nodeSt4pairIKS0_St6vectorIS0_SaIS0_EEESt10_Select1stIS6_ESt4lessIS0_ESaIS6_EEaSERKSC_:
.LFB4612:
	.cfi_startproc
	.cfi_personality 0x9b,DW.ref.__gxx_personality_v0
	.cfi_lsda 0x1b,.LLSDA4612
	endbr64
	pushq	%rbp
	.cfi_def_cfa_offset 16
	.cfi_offset 6, -16
	movq	%rsp, %rbp
	.cfi_def_cfa_register 6
	pushq	%rbx
	subq	$72, %rsp
	.cfi_offset 3, -24
	movq	%rdi, -72(%rbp)
	movq	%rsi, -80(%rbp)
	movq	%fs:40, %rax
	movq	%rax, -24(%rbp)
	xorl	%eax, %eax
	movq	-80(%rbp), %rax
	movq	%rax, %rdi
	call	_ZSt11__addressofIKSt8_Rb_treeI4nodeSt4pairIKS1_St6vectorIS1_SaIS1_EEESt10_Select1stIS7_ESt4lessIS1_ESaIS7_EEEPT_RSF_
	cmpq	%rax, -72(%rbp)
	setne	%al
	testb	%al, %al
	je	.L231
	call	_ZN9__gnu_cxx14__alloc_traitsISaISt13_Rb_tree_nodeISt4pairIK4nodeSt6vectorIS3_SaIS3_EEEEES9_E27_S_propagate_on_copy_assignEv
	testb	%al, %al
	je	.L232
	movq	-72(%rbp), %rax
	movq	%rax, %rdi
	call	_ZNSt8_Rb_treeI4nodeSt4pairIKS0_St6vectorIS0_SaIS0_EEESt10_Select1stIS6_ESt4lessIS0_ESaIS6_EE21_M_get_Node_allocatorEv
	movq	%rax, -64(%rbp)
	movq	-80(%rbp), %rax
	movq	%rax, %rdi
	call	_ZNKSt8_Rb_treeI4nodeSt4pairIKS0_St6vectorIS0_SaIS0_EEESt10_Select1stIS6_ESt4lessIS0_ESaIS6_EE21_M_get_Node_allocatorEv
	movq	%rax, -56(%rbp)
	call	_ZN9__gnu_cxx14__alloc_traitsISaISt13_Rb_tree_nodeISt4pairIK4nodeSt6vectorIS3_SaIS3_EEEEES9_E15_S_always_equalEv
	xorl	$1, %eax
	testb	%al, %al
	je	.L233
	movq	-56(%rbp), %rdx
	movq	-64(%rbp), %rax
	movq	%rdx, %rsi
	movq	%rax, %rdi
	call	_ZStneRKSaISt13_Rb_tree_nodeISt4pairIK4nodeSt6vectorIS1_SaIS1_EEEEESA_
	testb	%al, %al
	je	.L233
	movl	$1, %eax
	jmp	.L234
.L233:
	movl	$0, %eax
.L234:
	testb	%al, %al
	je	.L232
	movq	-72(%rbp), %rax
	movq	%rax, %rdi
	call	_ZNSt8_Rb_treeI4nodeSt4pairIKS0_St6vectorIS0_SaIS0_EEESt10_Select1stIS6_ESt4lessIS0_ESaIS6_EE5clearEv
	movq	-56(%rbp), %rdx
	movq	-64(%rbp), %rax
	movq	%rdx, %rsi
	movq	%rax, %rdi
	call	_ZSt15__alloc_on_copyISaISt13_Rb_tree_nodeISt4pairIK4nodeSt6vectorIS2_SaIS2_EEEEEEvRT_RKSA_
.L232:
	movq	-72(%rbp), %rdx
	leaq	-48(%rbp), %rax
	movq	%rdx, %rsi
	movq	%rax, %rdi
	call	_ZNSt8_Rb_treeI4nodeSt4pairIKS0_St6vectorIS0_SaIS0_EEESt10_Select1stIS6_ESt4lessIS0_ESaIS6_EE20_Reuse_or_alloc_nodeC1ERSC_
	movq	-72(%rbp), %rax
	addq	$8, %rax
	movq	%rax, %rdi
	call	_ZNSt15_Rb_tree_header8_M_resetEv
	movq	-80(%rbp), %rax
	movq	%rax, %rdi
	call	_ZNKSt8_Rb_treeI4nodeSt4pairIKS0_St6vectorIS0_SaIS0_EEESt10_Select1stIS6_ESt4lessIS0_ESaIS6_EE7_M_rootEv
	testq	%rax, %rax
	setne	%al
	testb	%al, %al
	je	.L235
	leaq	-48(%rbp), %rdx
	movq	-80(%rbp), %rcx
	movq	-72(%rbp), %rax
	movq	%rcx, %rsi
	movq	%rax, %rdi
.LEHB27:
	call	_ZNSt8_Rb_treeI4nodeSt4pairIKS0_St6vectorIS0_SaIS0_EEESt10_Select1stIS6_ESt4lessIS0_ESaIS6_EE7_M_copyILb0ENSC_20_Reuse_or_alloc_nodeEEEPSt13_Rb_tree_nodeIS6_ERKSC_RT0_
.LEHE27:
	movq	%rax, %rbx
	movq	-72(%rbp), %rax
	movq	%rax, %rdi
	call	_ZNSt8_Rb_treeI4nodeSt4pairIKS0_St6vectorIS0_SaIS0_EEESt10_Select1stIS6_ESt4lessIS0_ESaIS6_EE7_M_rootEv
	movq	%rbx, (%rax)
.L235:
	leaq	-48(%rbp), %rax
	movq	%rax, %rdi
	call	_ZNSt8_Rb_treeI4nodeSt4pairIKS0_St6vectorIS0_SaIS0_EEESt10_Select1stIS6_ESt4lessIS0_ESaIS6_EE20_Reuse_or_alloc_nodeD1Ev
.L231:
	movq	-72(%rbp), %rax
	movq	-24(%rbp), %rdx
	subq	%fs:40, %rdx
	je	.L238
	jmp	.L240
.L239:
	endbr64
	movq	%rax, %rbx
	leaq	-48(%rbp), %rax
	movq	%rax, %rdi
	call	_ZNSt8_Rb_treeI4nodeSt4pairIKS0_St6vectorIS0_SaIS0_EEESt10_Select1stIS6_ESt4lessIS0_ESaIS6_EE20_Reuse_or_alloc_nodeD1Ev
	movq	%rbx, %rax
	movq	%rax, %rdi
.LEHB28:
	call	_Unwind_Resume@PLT
.LEHE28:
.L240:
	call	__stack_chk_fail@PLT
.L238:
	movq	-8(%rbp), %rbx
	leave
	.cfi_def_cfa 7, 8
	ret
	.cfi_endproc
.LFE4612:
	.section	.gcc_except_table
.LLSDA4612:
	.byte	0xff
	.byte	0xff
	.byte	0x1
	.uleb128 .LLSDACSE4612-.LLSDACSB4612
.LLSDACSB4612:
	.uleb128 .LEHB27-.LFB4612
	.uleb128 .LEHE27-.LEHB27
	.uleb128 .L239-.LFB4612
	.uleb128 0
	.uleb128 .LEHB28-.LFB4612
	.uleb128 .LEHE28-.LEHB28
	.uleb128 0
	.uleb128 0
.LLSDACSE4612:
	.section	.text._ZNSt8_Rb_treeI4nodeSt4pairIKS0_St6vectorIS0_SaIS0_EEESt10_Select1stIS6_ESt4lessIS0_ESaIS6_EEaSERKSC_,"axG",@progbits,_ZNSt8_Rb_treeI4nodeSt4pairIKS0_St6vectorIS0_SaIS0_EEESt10_Select1stIS6_ESt4lessIS0_ESaIS6_EEaSERKSC_,comdat
	.size	_ZNSt8_Rb_treeI4nodeSt4pairIKS0_St6vectorIS0_SaIS0_EEESt10_Select1stIS6_ESt4lessIS0_ESaIS6_EEaSERKSC_, .-_ZNSt8_Rb_treeI4nodeSt4pairIKS0_St6vectorIS0_SaIS0_EEESt10_Select1stIS6_ESt4lessIS0_ESaIS6_EEaSERKSC_
	.section	.text._ZNSaIP5node2EC2Ev,"axG",@progbits,_ZNSaIP5node2EC5Ev,comdat
	.align 2
	.weak	_ZNSaIP5node2EC2Ev
	.type	_ZNSaIP5node2EC2Ev, @function
_ZNSaIP5node2EC2Ev:
.LFB4615:
	.cfi_startproc
	endbr64
	pushq	%rbp
	.cfi_def_cfa_offset 16
	.cfi_offset 6, -16
	movq	%rsp, %rbp
	.cfi_def_cfa_register 6
	subq	$16, %rsp
	movq	%rdi, -8(%rbp)
	movq	-8(%rbp), %rax
	movq	%rax, %rdi
	call	_ZNSt15__new_allocatorIP5node2EC2Ev
	nop
	leave
	.cfi_def_cfa 7, 8
	ret
	.cfi_endproc
.LFE4615:
	.size	_ZNSaIP5node2EC2Ev, .-_ZNSaIP5node2EC2Ev
	.weak	_ZNSaIP5node2EC1Ev
	.set	_ZNSaIP5node2EC1Ev,_ZNSaIP5node2EC2Ev
	.section	.text._ZNSaIP5node2ED2Ev,"axG",@progbits,_ZNSaIP5node2ED5Ev,comdat
	.align 2
	.weak	_ZNSaIP5node2ED2Ev
	.type	_ZNSaIP5node2ED2Ev, @function
_ZNSaIP5node2ED2Ev:
.LFB4618:
	.cfi_startproc
	endbr64
	pushq	%rbp
	.cfi_def_cfa_offset 16
	.cfi_offset 6, -16
	movq	%rsp, %rbp
	.cfi_def_cfa_register 6
	subq	$16, %rsp
	movq	%rdi, -8(%rbp)
	movq	-8(%rbp), %rax
	movq	%rax, %rdi
	call	_ZNSt15__new_allocatorIP5node2ED2Ev
	nop
	leave
	.cfi_def_cfa 7, 8
	ret
	.cfi_endproc
.LFE4618:
	.size	_ZNSaIP5node2ED2Ev, .-_ZNSaIP5node2ED2Ev
	.weak	_ZNSaIP5node2ED1Ev
	.set	_ZNSaIP5node2ED1Ev,_ZNSaIP5node2ED2Ev
	.section	.text._ZNSt5dequeIP5node2SaIS1_EEC2ESt16initializer_listIS1_ERKS2_,"axG",@progbits,_ZNSt5dequeIP5node2SaIS1_EEC5ESt16initializer_listIS1_ERKS2_,comdat
	.align 2
	.weak	_ZNSt5dequeIP5node2SaIS1_EEC2ESt16initializer_listIS1_ERKS2_
	.type	_ZNSt5dequeIP5node2SaIS1_EEC2ESt16initializer_listIS1_ERKS2_, @function
_ZNSt5dequeIP5node2SaIS1_EEC2ESt16initializer_listIS1_ERKS2_:
.LFB4621:
	.cfi_startproc
	.cfi_personality 0x9b,DW.ref.__gxx_personality_v0
	.cfi_lsda 0x1b,.LLSDA4621
	endbr64
	pushq	%rbp
	.cfi_def_cfa_offset 16
	.cfi_offset 6, -16
	movq	%rsp, %rbp
	.cfi_def_cfa_register 6
	pushq	%rbx
	subq	$56, %rsp
	.cfi_offset 3, -24
	movq	%rdi, -40(%rbp)
	movq	%rsi, %rax
	movq	%rdx, %rsi
	movq	%rsi, %rdx
	movq	%rax, -64(%rbp)
	movq	%rdx, -56(%rbp)
	movq	%rcx, -48(%rbp)
	movq	%fs:40, %rax
	movq	%rax, -24(%rbp)
	xorl	%eax, %eax
	movq	-40(%rbp), %rax
	movq	-48(%rbp), %rdx
	movq	%rdx, %rsi
	movq	%rax, %rdi
	call	_ZNSt11_Deque_baseIP5node2SaIS1_EEC2ERKS2_
	leaq	-64(%rbp), %rax
	movq	%rax, %rdi
	call	_ZNKSt16initializer_listIP5node2E3endEv
	movq	%rax, %rbx
	leaq	-64(%rbp), %rax
	movq	%rax, %rdi
	call	_ZNKSt16initializer_listIP5node2E5beginEv
	movq	%rax, %rcx
	movq	-40(%rbp), %rax
	movq	%rbx, %rdx
	movq	%rcx, %rsi
	movq	%rax, %rdi
.LEHB29:
	call	_ZNSt5dequeIP5node2SaIS1_EE19_M_range_initializeIPKS1_EEvT_S7_St20forward_iterator_tag
.LEHE29:
	jmp	.L247
.L246:
	endbr64
	movq	%rax, %rbx
	movq	-40(%rbp), %rax
	movq	%rax, %rdi
	call	_ZNSt11_Deque_baseIP5node2SaIS1_EED2Ev
	movq	%rbx, %rax
	movq	%rax, %rdi
.LEHB30:
	call	_Unwind_Resume@PLT
.LEHE30:
.L247:
	movq	-24(%rbp), %rax
	subq	%fs:40, %rax
	je	.L245
	call	__stack_chk_fail@PLT
.L245:
	movq	-8(%rbp), %rbx
	leave
	.cfi_def_cfa 7, 8
	ret
	.cfi_endproc
.LFE4621:
	.section	.gcc_except_table
.LLSDA4621:
	.byte	0xff
	.byte	0xff
	.byte	0x1
	.uleb128 .LLSDACSE4621-.LLSDACSB4621
.LLSDACSB4621:
	.uleb128 .LEHB29-.LFB4621
	.uleb128 .LEHE29-.LEHB29
	.uleb128 .L246-.LFB4621
	.uleb128 0
	.uleb128 .LEHB30-.LFB4621
	.uleb128 .LEHE30-.LEHB30
	.uleb128 0
	.uleb128 0
.LLSDACSE4621:
	.section	.text._ZNSt5dequeIP5node2SaIS1_EEC2ESt16initializer_listIS1_ERKS2_,"axG",@progbits,_ZNSt5dequeIP5node2SaIS1_EEC5ESt16initializer_listIS1_ERKS2_,comdat
	.size	_ZNSt5dequeIP5node2SaIS1_EEC2ESt16initializer_listIS1_ERKS2_, .-_ZNSt5dequeIP5node2SaIS1_EEC2ESt16initializer_listIS1_ERKS2_
	.weak	_ZNSt5dequeIP5node2SaIS1_EEC1ESt16initializer_listIS1_ERKS2_
	.set	_ZNSt5dequeIP5node2SaIS1_EEC1ESt16initializer_listIS1_ERKS2_,_ZNSt5dequeIP5node2SaIS1_EEC2ESt16initializer_listIS1_ERKS2_
	.section	.text._ZNSt5dequeIP5node2SaIS1_EED2Ev,"axG",@progbits,_ZNSt5dequeIP5node2SaIS1_EED5Ev,comdat
	.align 2
	.weak	_ZNSt5dequeIP5node2SaIS1_EED2Ev
	.type	_ZNSt5dequeIP5node2SaIS1_EED2Ev, @function
_ZNSt5dequeIP5node2SaIS1_EED2Ev:
.LFB4624:
	.cfi_startproc
	.cfi_personality 0x9b,DW.ref.__gxx_personality_v0
	.cfi_lsda 0x1b,.LLSDA4624
	endbr64
	pushq	%rbp
	.cfi_def_cfa_offset 16
	.cfi_offset 6, -16
	movq	%rsp, %rbp
	.cfi_def_cfa_register 6
	pushq	%rbx
	subq	$104, %rsp
	.cfi_offset 3, -24
	movq	%rdi, -104(%rbp)
	movq	%fs:40, %rax
	movq	%rax, -24(%rbp)
	xorl	%eax, %eax
	movq	-104(%rbp), %rax
	movq	%rax, %rdi
	call	_ZNSt11_Deque_baseIP5node2SaIS1_EE19_M_get_Tp_allocatorEv
	movq	%rax, %rbx
	leaq	-64(%rbp), %rax
	movq	-104(%rbp), %rdx
	movq	%rdx, %rsi
	movq	%rax, %rdi
	call	_ZNSt5dequeIP5node2SaIS1_EE3endEv
	leaq	-96(%rbp), %rax
	movq	-104(%rbp), %rdx
	movq	%rdx, %rsi
	movq	%rax, %rdi
	call	_ZNSt5dequeIP5node2SaIS1_EE5beginEv
	leaq	-64(%rbp), %rdx
	leaq	-96(%rbp), %rsi
	movq	-104(%rbp), %rax
	movq	%rbx, %rcx
	movq	%rax, %rdi
	call	_ZNSt5dequeIP5node2SaIS1_EE15_M_destroy_dataESt15_Deque_iteratorIS1_RS1_PS1_ES7_RKS2_
	movq	-104(%rbp), %rax
	movq	%rax, %rdi
	call	_ZNSt11_Deque_baseIP5node2SaIS1_EED2Ev
	nop
	movq	-24(%rbp), %rax
	subq	%fs:40, %rax
	je	.L249
	call	__stack_chk_fail@PLT
.L249:
	movq	-8(%rbp), %rbx
	leave
	.cfi_def_cfa 7, 8
	ret
	.cfi_endproc
.LFE4624:
	.section	.gcc_except_table
.LLSDA4624:
	.byte	0xff
	.byte	0xff
	.byte	0x1
	.uleb128 .LLSDACSE4624-.LLSDACSB4624
.LLSDACSB4624:
.LLSDACSE4624:
	.section	.text._ZNSt5dequeIP5node2SaIS1_EED2Ev,"axG",@progbits,_ZNSt5dequeIP5node2SaIS1_EED5Ev,comdat
	.size	_ZNSt5dequeIP5node2SaIS1_EED2Ev, .-_ZNSt5dequeIP5node2SaIS1_EED2Ev
	.weak	_ZNSt5dequeIP5node2SaIS1_EED1Ev
	.set	_ZNSt5dequeIP5node2SaIS1_EED1Ev,_ZNSt5dequeIP5node2SaIS1_EED2Ev
	.section	.text._ZNKSt5dequeIP5node2SaIS1_EE5emptyEv,"axG",@progbits,_ZNKSt5dequeIP5node2SaIS1_EE5emptyEv,comdat
	.align 2
	.weak	_ZNKSt5dequeIP5node2SaIS1_EE5emptyEv
	.type	_ZNKSt5dequeIP5node2SaIS1_EE5emptyEv, @function
_ZNKSt5dequeIP5node2SaIS1_EE5emptyEv:
.LFB4626:
	.cfi_startproc
	endbr64
	pushq	%rbp
	.cfi_def_cfa_offset 16
	.cfi_offset 6, -16
	movq	%rsp, %rbp
	.cfi_def_cfa_register 6
	subq	$16, %rsp
	movq	%rdi, -8(%rbp)
	movq	-8(%rbp), %rax
	leaq	16(%rax), %rdx
	movq	-8(%rbp), %rax
	addq	$48, %rax
	movq	%rdx, %rsi
	movq	%rax, %rdi
	call	_ZSteqRKSt15_Deque_iteratorIP5node2RS1_PS1_ES6_
	leave
	.cfi_def_cfa 7, 8
	ret
	.cfi_endproc
.LFE4626:
	.size	_ZNKSt5dequeIP5node2SaIS1_EE5emptyEv, .-_ZNKSt5dequeIP5node2SaIS1_EE5emptyEv
	.section	.text._ZNSt5dequeIP5node2SaIS1_EE5frontEv,"axG",@progbits,_ZNSt5dequeIP5node2SaIS1_EE5frontEv,comdat
	.align 2
	.weak	_ZNSt5dequeIP5node2SaIS1_EE5frontEv
	.type	_ZNSt5dequeIP5node2SaIS1_EE5frontEv, @function
_ZNSt5dequeIP5node2SaIS1_EE5frontEv:
.LFB4627:
	.cfi_startproc
	endbr64
	pushq	%rbp
	.cfi_def_cfa_offset 16
	.cfi_offset 6, -16
	movq	%rsp, %rbp
	.cfi_def_cfa_register 6
	subq	$64, %rsp
	movq	%rdi, -56(%rbp)
	movq	%fs:40, %rax
	movq	%rax, -8(%rbp)
	xorl	%eax, %eax
	leaq	-48(%rbp), %rax
	movq	-56(%rbp), %rdx
	movq	%rdx, %rsi
	movq	%rax, %rdi
	call	_ZNSt5dequeIP5node2SaIS1_EE5beginEv
	leaq	-48(%rbp), %rax
	movq	%rax, %rdi
	call	_ZNKSt15_Deque_iteratorIP5node2RS1_PS1_EdeEv
	movq	-8(%rbp), %rdx
	subq	%fs:40, %rdx
	je	.L254
	call	__stack_chk_fail@PLT
.L254:
	leave
	.cfi_def_cfa 7, 8
	ret
	.cfi_endproc
.LFE4627:
	.size	_ZNSt5dequeIP5node2SaIS1_EE5frontEv, .-_ZNSt5dequeIP5node2SaIS1_EE5frontEv
	.section	.text._ZNSt5dequeIP5node2SaIS1_EE9pop_frontEv,"axG",@progbits,_ZNSt5dequeIP5node2SaIS1_EE9pop_frontEv,comdat
	.align 2
	.weak	_ZNSt5dequeIP5node2SaIS1_EE9pop_frontEv
	.type	_ZNSt5dequeIP5node2SaIS1_EE9pop_frontEv, @function
_ZNSt5dequeIP5node2SaIS1_EE9pop_frontEv:
.LFB4628:
	.cfi_startproc
	endbr64
	pushq	%rbp
	.cfi_def_cfa_offset 16
	.cfi_offset 6, -16
	movq	%rsp, %rbp
	.cfi_def_cfa_register 6
	pushq	%rbx
	subq	$24, %rsp
	.cfi_offset 3, -24
	movq	%rdi, -24(%rbp)
	movq	-24(%rbp), %rax
	movq	16(%rax), %rdx
	movq	-24(%rbp), %rax
	movq	32(%rax), %rax
	subq	$8, %rax
	cmpq	%rax, %rdx
	je	.L256
	movq	-24(%rbp), %rax
	movq	16(%rax), %rbx
	movq	-24(%rbp), %rax
	movq	%rax, %rdi
	call	_ZNSt11_Deque_baseIP5node2SaIS1_EE19_M_get_Tp_allocatorEv
	movq	%rbx, %rsi
	movq	%rax, %rdi
	call	_ZNSt16allocator_traitsISaIP5node2EE7destroyIS1_EEvRS2_PT_
	movq	-24(%rbp), %rax
	movq	16(%rax), %rax
	leaq	8(%rax), %rdx
	movq	-24(%rbp), %rax
	movq	%rdx, 16(%rax)
	jmp	.L258
.L256:
	movq	-24(%rbp), %rax
	movq	%rax, %rdi
	call	_ZNSt5dequeIP5node2SaIS1_EE16_M_pop_front_auxEv
.L258:
	nop
	movq	-8(%rbp), %rbx
	leave
	.cfi_def_cfa 7, 8
	ret
	.cfi_endproc
.LFE4628:
	.size	_ZNSt5dequeIP5node2SaIS1_EE9pop_frontEv, .-_ZNSt5dequeIP5node2SaIS1_EE9pop_frontEv
	.section	.text._ZNSt3mapIP5node2St6vectorIS1_SaIS1_EESt4lessIS1_ESaISt4pairIKS1_S4_EEEixERS8_,"axG",@progbits,_ZNSt3mapIP5node2St6vectorIS1_SaIS1_EESt4lessIS1_ESaISt4pairIKS1_S4_EEEixERS8_,comdat
	.align 2
	.weak	_ZNSt3mapIP5node2St6vectorIS1_SaIS1_EESt4lessIS1_ESaISt4pairIKS1_S4_EEEixERS8_
	.type	_ZNSt3mapIP5node2St6vectorIS1_SaIS1_EESt4lessIS1_ESaISt4pairIKS1_S4_EEEixERS8_, @function
_ZNSt3mapIP5node2St6vectorIS1_SaIS1_EESt4lessIS1_ESaISt4pairIKS1_S4_EEEixERS8_:
.LFB4630:
	.cfi_startproc
	endbr64
	pushq	%rbp
	.cfi_def_cfa_offset 16
	.cfi_offset 6, -16
	movq	%rsp, %rbp
	.cfi_def_cfa_register 6
	pushq	%rbx
	subq	$72, %rsp
	.cfi_offset 3, -24
	movq	%rdi, -72(%rbp)
	movq	%rsi, -80(%rbp)
	movq	%fs:40, %rax
	movq	%rax, -24(%rbp)
	xorl	%eax, %eax
	movq	-80(%rbp), %rdx
	movq	-72(%rbp), %rax
	movq	%rdx, %rsi
	movq	%rax, %rdi
	call	_ZNSt3mapIP5node2St6vectorIS1_SaIS1_EESt4lessIS1_ESaISt4pairIKS1_S4_EEE11lower_boundERS8_
	movq	%rax, -48(%rbp)
	movq	-72(%rbp), %rax
	movq	%rax, %rdi
	call	_ZNSt3mapIP5node2St6vectorIS1_SaIS1_EESt4lessIS1_ESaISt4pairIKS1_S4_EEE3endEv
	movq	%rax, -32(%rbp)
	leaq	-32(%rbp), %rdx
	leaq	-48(%rbp), %rax
	movq	%rdx, %rsi
	movq	%rax, %rdi
	call	_ZSteqRKSt17_Rb_tree_iteratorISt4pairIKP5node2St6vectorIS2_SaIS2_EEEESA_
	testb	%al, %al
	jne	.L260
	movq	-72(%rbp), %rax
	movq	%rax, %rdi
	call	_ZNKSt3mapIP5node2St6vectorIS1_SaIS1_EESt4lessIS1_ESaISt4pairIKS1_S4_EEE8key_compEv
	leaq	-48(%rbp), %rax
	movq	%rax, %rdi
	call	_ZNKSt17_Rb_tree_iteratorISt4pairIKP5node2St6vectorIS2_SaIS2_EEEEdeEv
	movq	(%rax), %rdx
	movq	-80(%rbp), %rax
	movq	(%rax), %rcx
	leaq	-40(%rbp), %rax
	movq	%rcx, %rsi
	movq	%rax, %rdi
	call	_ZNKSt4lessIP5node2EclES1_S1_
	testb	%al, %al
	je	.L261
.L260:
	movl	$1, %eax
	jmp	.L262
.L261:
	movl	$0, %eax
.L262:
	testb	%al, %al
	je	.L263
	movq	-72(%rbp), %rbx
	movq	-80(%rbp), %rdx
	leaq	-40(%rbp), %rax
	movq	%rdx, %rsi
	movq	%rax, %rdi
	call	_ZNSt5tupleIJRKP5node2EEC1ILb1ELb1EEES3_
	leaq	-48(%rbp), %rdx
	leaq	-32(%rbp), %rax
	movq	%rdx, %rsi
	movq	%rax, %rdi
	call	_ZNSt23_Rb_tree_const_iteratorISt4pairIKP5node2St6vectorIS2_SaIS2_EEEEC1ERKSt17_Rb_tree_iteratorIS7_E
	leaq	-49(%rbp), %rcx
	leaq	-40(%rbp), %rdx
	movq	-32(%rbp), %rax
	movq	%rcx, %r8
	movq	%rdx, %rcx
	leaq	_ZSt19piecewise_construct(%rip), %rdx
	movq	%rax, %rsi
	movq	%rbx, %rdi
	call	_ZNSt8_Rb_treeIP5node2St4pairIKS1_St6vectorIS1_SaIS1_EEESt10_Select1stIS7_ESt4lessIS1_ESaIS7_EE22_M_emplace_hint_uniqueIJRKSt21piecewise_construct_tSt5tupleIJRS3_EESI_IJEEEEESt17_Rb_tree_iteratorIS7_ESt23_Rb_tree_const_iteratorIS7_EDpOT_
	movq	%rax, -48(%rbp)
.L263:
	leaq	-48(%rbp), %rax
	movq	%rax, %rdi
	call	_ZNKSt17_Rb_tree_iteratorISt4pairIKP5node2St6vectorIS2_SaIS2_EEEEdeEv
	addq	$8, %rax
	movq	-24(%rbp), %rdx
	subq	%fs:40, %rdx
	je	.L265
	call	__stack_chk_fail@PLT
.L265:
	movq	-8(%rbp), %rbx
	leave
	.cfi_def_cfa 7, 8
	ret
	.cfi_endproc
.LFE4630:
	.size	_ZNSt3mapIP5node2St6vectorIS1_SaIS1_EESt4lessIS1_ESaISt4pairIKS1_S4_EEEixERS8_, .-_ZNSt3mapIP5node2St6vectorIS1_SaIS1_EESt4lessIS1_ESaISt4pairIKS1_S4_EEEixERS8_
	.section	.text._ZNSt6vectorIP5node2SaIS1_EE5beginEv,"axG",@progbits,_ZNSt6vectorIP5node2SaIS1_EE5beginEv,comdat
	.align 2
	.weak	_ZNSt6vectorIP5node2SaIS1_EE5beginEv
	.type	_ZNSt6vectorIP5node2SaIS1_EE5beginEv, @function
_ZNSt6vectorIP5node2SaIS1_EE5beginEv:
.LFB4637:
	.cfi_startproc
	endbr64
	pushq	%rbp
	.cfi_def_cfa_offset 16
	.cfi_offset 6, -16
	movq	%rsp, %rbp
	.cfi_def_cfa_register 6
	subq	$32, %rsp
	movq	%rdi, -24(%rbp)
	movq	%fs:40, %rax
	movq	%rax, -8(%rbp)
	xorl	%eax, %eax
	movq	-24(%rbp), %rdx
	leaq	-16(%rbp), %rax
	movq	%rdx, %rsi
	movq	%rax, %rdi
	call	_ZN9__gnu_cxx17__normal_iteratorIPP5node2St6vectorIS2_SaIS2_EEEC1ERKS3_
	movq	-16(%rbp), %rax
	movq	-8(%rbp), %rdx
	subq	%fs:40, %rdx
	je	.L268
	call	__stack_chk_fail@PLT
.L268:
	leave
	.cfi_def_cfa 7, 8
	ret
	.cfi_endproc
.LFE4637:
	.size	_ZNSt6vectorIP5node2SaIS1_EE5beginEv, .-_ZNSt6vectorIP5node2SaIS1_EE5beginEv
	.section	.text._ZNSt6vectorIP5node2SaIS1_EE3endEv,"axG",@progbits,_ZNSt6vectorIP5node2SaIS1_EE3endEv,comdat
	.align 2
	.weak	_ZNSt6vectorIP5node2SaIS1_EE3endEv
	.type	_ZNSt6vectorIP5node2SaIS1_EE3endEv, @function
_ZNSt6vectorIP5node2SaIS1_EE3endEv:
.LFB4638:
	.cfi_startproc
	endbr64
	pushq	%rbp
	.cfi_def_cfa_offset 16
	.cfi_offset 6, -16
	movq	%rsp, %rbp
	.cfi_def_cfa_register 6
	subq	$32, %rsp
	movq	%rdi, -24(%rbp)
	movq	%fs:40, %rax
	movq	%rax, -8(%rbp)
	xorl	%eax, %eax
	movq	-24(%rbp), %rax
	leaq	8(%rax), %rdx
	leaq	-16(%rbp), %rax
	movq	%rdx, %rsi
	movq	%rax, %rdi
	call	_ZN9__gnu_cxx17__normal_iteratorIPP5node2St6vectorIS2_SaIS2_EEEC1ERKS3_
	movq	-16(%rbp), %rax
	movq	-8(%rbp), %rdx
	subq	%fs:40, %rdx
	je	.L271
	call	__stack_chk_fail@PLT
.L271:
	leave
	.cfi_def_cfa 7, 8
	ret
	.cfi_endproc
.LFE4638:
	.size	_ZNSt6vectorIP5node2SaIS1_EE3endEv, .-_ZNSt6vectorIP5node2SaIS1_EE3endEv
	.section	.text._ZN9__gnu_cxxneIPP5node2St6vectorIS2_SaIS2_EEEEbRKNS_17__normal_iteratorIT_T0_EESC_,"axG",@progbits,_ZN9__gnu_cxxneIPP5node2St6vectorIS2_SaIS2_EEEEbRKNS_17__normal_iteratorIT_T0_EESC_,comdat
	.weak	_ZN9__gnu_cxxneIPP5node2St6vectorIS2_SaIS2_EEEEbRKNS_17__normal_iteratorIT_T0_EESC_
	.type	_ZN9__gnu_cxxneIPP5node2St6vectorIS2_SaIS2_EEEEbRKNS_17__normal_iteratorIT_T0_EESC_, @function
_ZN9__gnu_cxxneIPP5node2St6vectorIS2_SaIS2_EEEEbRKNS_17__normal_iteratorIT_T0_EESC_:
.LFB4639:
	.cfi_startproc
	endbr64
	pushq	%rbp
	.cfi_def_cfa_offset 16
	.cfi_offset 6, -16
	movq	%rsp, %rbp
	.cfi_def_cfa_register 6
	pushq	%rbx
	subq	$24, %rsp
	.cfi_offset 3, -24
	movq	%rdi, -24(%rbp)
	movq	%rsi, -32(%rbp)
	movq	-24(%rbp), %rax
	movq	%rax, %rdi
	call	_ZNK9__gnu_cxx17__normal_iteratorIPP5node2St6vectorIS2_SaIS2_EEE4baseEv
	movq	(%rax), %rbx
	movq	-32(%rbp), %rax
	movq	%rax, %rdi
	call	_ZNK9__gnu_cxx17__normal_iteratorIPP5node2St6vectorIS2_SaIS2_EEE4baseEv
	movq	(%rax), %rax
	cmpq	%rax, %rbx
	setne	%al
	movq	-8(%rbp), %rbx
	leave
	.cfi_def_cfa 7, 8
	ret
	.cfi_endproc
.LFE4639:
	.size	_ZN9__gnu_cxxneIPP5node2St6vectorIS2_SaIS2_EEEEbRKNS_17__normal_iteratorIT_T0_EESC_, .-_ZN9__gnu_cxxneIPP5node2St6vectorIS2_SaIS2_EEEEbRKNS_17__normal_iteratorIT_T0_EESC_
	.section	.text._ZN9__gnu_cxx17__normal_iteratorIPP5node2St6vectorIS2_SaIS2_EEEppEv,"axG",@progbits,_ZN9__gnu_cxx17__normal_iteratorIPP5node2St6vectorIS2_SaIS2_EEEppEv,comdat
	.align 2
	.weak	_ZN9__gnu_cxx17__normal_iteratorIPP5node2St6vectorIS2_SaIS2_EEEppEv
	.type	_ZN9__gnu_cxx17__normal_iteratorIPP5node2St6vectorIS2_SaIS2_EEEppEv, @function
_ZN9__gnu_cxx17__normal_iteratorIPP5node2St6vectorIS2_SaIS2_EEEppEv:
.LFB4640:
	.cfi_startproc
	endbr64
	pushq	%rbp
	.cfi_def_cfa_offset 16
	.cfi_offset 6, -16
	movq	%rsp, %rbp
	.cfi_def_cfa_register 6
	movq	%rdi, -8(%rbp)
	movq	-8(%rbp), %rax
	movq	(%rax), %rax
	leaq	8(%rax), %rdx
	movq	-8(%rbp), %rax
	movq	%rdx, (%rax)
	movq	-8(%rbp), %rax
	popq	%rbp
	.cfi_def_cfa 7, 8
	ret
	.cfi_endproc
.LFE4640:
	.size	_ZN9__gnu_cxx17__normal_iteratorIPP5node2St6vectorIS2_SaIS2_EEEppEv, .-_ZN9__gnu_cxx17__normal_iteratorIPP5node2St6vectorIS2_SaIS2_EEEppEv
	.section	.text._ZNK9__gnu_cxx17__normal_iteratorIPP5node2St6vectorIS2_SaIS2_EEEdeEv,"axG",@progbits,_ZNK9__gnu_cxx17__normal_iteratorIPP5node2St6vectorIS2_SaIS2_EEEdeEv,comdat
	.align 2
	.weak	_ZNK9__gnu_cxx17__normal_iteratorIPP5node2St6vectorIS2_SaIS2_EEEdeEv
	.type	_ZNK9__gnu_cxx17__normal_iteratorIPP5node2St6vectorIS2_SaIS2_EEEdeEv, @function
_ZNK9__gnu_cxx17__normal_iteratorIPP5node2St6vectorIS2_SaIS2_EEEdeEv:
.LFB4641:
	.cfi_startproc
	endbr64
	pushq	%rbp
	.cfi_def_cfa_offset 16
	.cfi_offset 6, -16
	movq	%rsp, %rbp
	.cfi_def_cfa_register 6
	movq	%rdi, -8(%rbp)
	movq	-8(%rbp), %rax
	movq	(%rax), %rax
	popq	%rbp
	.cfi_def_cfa 7, 8
	ret
	.cfi_endproc
.LFE4641:
	.size	_ZNK9__gnu_cxx17__normal_iteratorIPP5node2St6vectorIS2_SaIS2_EEEdeEv, .-_ZNK9__gnu_cxx17__normal_iteratorIPP5node2St6vectorIS2_SaIS2_EEEdeEv
	.section	.text._ZNSt5dequeIP5node2SaIS1_EE10push_frontERKS1_,"axG",@progbits,_ZNSt5dequeIP5node2SaIS1_EE10push_frontERKS1_,comdat
	.align 2
	.weak	_ZNSt5dequeIP5node2SaIS1_EE10push_frontERKS1_
	.type	_ZNSt5dequeIP5node2SaIS1_EE10push_frontERKS1_, @function
_ZNSt5dequeIP5node2SaIS1_EE10push_frontERKS1_:
.LFB4642:
	.cfi_startproc
	endbr64
	pushq	%rbp
	.cfi_def_cfa_offset 16
	.cfi_offset 6, -16
	movq	%rsp, %rbp
	.cfi_def_cfa_register 6
	subq	$16, %rsp
	movq	%rdi, -8(%rbp)
	movq	%rsi, -16(%rbp)
	movq	-8(%rbp), %rax
	movq	16(%rax), %rdx
	movq	-8(%rbp), %rax
	movq	24(%rax), %rax
	cmpq	%rax, %rdx
	je	.L279
	movq	-8(%rbp), %rax
	movq	16(%rax), %rax
	leaq	-8(%rax), %rcx
	movq	-8(%rbp), %rax
	movq	-16(%rbp), %rdx
	movq	%rcx, %rsi
	movq	%rax, %rdi
	call	_ZNSt16allocator_traitsISaIP5node2EE9constructIS1_JRKS1_EEEvRS2_PT_DpOT0_
	movq	-8(%rbp), %rax
	movq	16(%rax), %rax
	leaq	-8(%rax), %rdx
	movq	-8(%rbp), %rax
	movq	%rdx, 16(%rax)
	jmp	.L281
.L279:
	movq	-16(%rbp), %rdx
	movq	-8(%rbp), %rax
	movq	%rdx, %rsi
	movq	%rax, %rdi
	call	_ZNSt5dequeIP5node2SaIS1_EE17_M_push_front_auxIJRKS1_EEEvDpOT_
.L281:
	nop
	leave
	.cfi_def_cfa 7, 8
	ret
	.cfi_endproc
.LFE4642:
	.size	_ZNSt5dequeIP5node2SaIS1_EE10push_frontERKS1_, .-_ZNSt5dequeIP5node2SaIS1_EE10push_frontERKS1_
	.section	.text._ZNSt3mapIP5node2St6vectorIS1_SaIS1_EESt4lessIS1_ESaISt4pairIKS1_S4_EEE5beginEv,"axG",@progbits,_ZNSt3mapIP5node2St6vectorIS1_SaIS1_EESt4lessIS1_ESaISt4pairIKS1_S4_EEE5beginEv,comdat
	.align 2
	.weak	_ZNSt3mapIP5node2St6vectorIS1_SaIS1_EESt4lessIS1_ESaISt4pairIKS1_S4_EEE5beginEv
	.type	_ZNSt3mapIP5node2St6vectorIS1_SaIS1_EESt4lessIS1_ESaISt4pairIKS1_S4_EEE5beginEv, @function
_ZNSt3mapIP5node2St6vectorIS1_SaIS1_EESt4lessIS1_ESaISt4pairIKS1_S4_EEE5beginEv:
.LFB4643:
	.cfi_startproc
	endbr64
	pushq	%rbp
	.cfi_def_cfa_offset 16
	.cfi_offset 6, -16
	movq	%rsp, %rbp
	.cfi_def_cfa_register 6
	subq	$16, %rsp
	movq	%rdi, -8(%rbp)
	movq	-8(%rbp), %rax
	movq	%rax, %rdi
	call	_ZNSt8_Rb_treeIP5node2St4pairIKS1_St6vectorIS1_SaIS1_EEESt10_Select1stIS7_ESt4lessIS1_ESaIS7_EE5beginEv
	leave
	.cfi_def_cfa 7, 8
	ret
	.cfi_endproc
.LFE4643:
	.size	_ZNSt3mapIP5node2St6vectorIS1_SaIS1_EESt4lessIS1_ESaISt4pairIKS1_S4_EEE5beginEv, .-_ZNSt3mapIP5node2St6vectorIS1_SaIS1_EESt4lessIS1_ESaISt4pairIKS1_S4_EEE5beginEv
	.section	.text._ZNSt3mapIP5node2St6vectorIS1_SaIS1_EESt4lessIS1_ESaISt4pairIKS1_S4_EEE3endEv,"axG",@progbits,_ZNSt3mapIP5node2St6vectorIS1_SaIS1_EESt4lessIS1_ESaISt4pairIKS1_S4_EEE3endEv,comdat
	.align 2
	.weak	_ZNSt3mapIP5node2St6vectorIS1_SaIS1_EESt4lessIS1_ESaISt4pairIKS1_S4_EEE3endEv
	.type	_ZNSt3mapIP5node2St6vectorIS1_SaIS1_EESt4lessIS1_ESaISt4pairIKS1_S4_EEE3endEv, @function
_ZNSt3mapIP5node2St6vectorIS1_SaIS1_EESt4lessIS1_ESaISt4pairIKS1_S4_EEE3endEv:
.LFB4644:
	.cfi_startproc
	endbr64
	pushq	%rbp
	.cfi_def_cfa_offset 16
	.cfi_offset 6, -16
	movq	%rsp, %rbp
	.cfi_def_cfa_register 6
	subq	$16, %rsp
	movq	%rdi, -8(%rbp)
	movq	-8(%rbp), %rax
	movq	%rax, %rdi
	call	_ZNSt8_Rb_treeIP5node2St4pairIKS1_St6vectorIS1_SaIS1_EEESt10_Select1stIS7_ESt4lessIS1_ESaIS7_EE3endEv
	leave
	.cfi_def_cfa 7, 8
	ret
	.cfi_endproc
.LFE4644:
	.size	_ZNSt3mapIP5node2St6vectorIS1_SaIS1_EESt4lessIS1_ESaISt4pairIKS1_S4_EEE3endEv, .-_ZNSt3mapIP5node2St6vectorIS1_SaIS1_EESt4lessIS1_ESaISt4pairIKS1_S4_EEE3endEv
	.section	.text._ZStneRKSt17_Rb_tree_iteratorISt4pairIKP5node2St6vectorIS2_SaIS2_EEEESA_,"axG",@progbits,_ZStneRKSt17_Rb_tree_iteratorISt4pairIKP5node2St6vectorIS2_SaIS2_EEEESA_,comdat
	.weak	_ZStneRKSt17_Rb_tree_iteratorISt4pairIKP5node2St6vectorIS2_SaIS2_EEEESA_
	.type	_ZStneRKSt17_Rb_tree_iteratorISt4pairIKP5node2St6vectorIS2_SaIS2_EEEESA_, @function
_ZStneRKSt17_Rb_tree_iteratorISt4pairIKP5node2St6vectorIS2_SaIS2_EEEESA_:
.LFB4645:
	.cfi_startproc
	endbr64
	pushq	%rbp
	.cfi_def_cfa_offset 16
	.cfi_offset 6, -16
	movq	%rsp, %rbp
	.cfi_def_cfa_register 6
	movq	%rdi, -8(%rbp)
	movq	%rsi, -16(%rbp)
	movq	-8(%rbp), %rax
	movq	(%rax), %rdx
	movq	-16(%rbp), %rax
	movq	(%rax), %rax
	cmpq	%rax, %rdx
	setne	%al
	popq	%rbp
	.cfi_def_cfa 7, 8
	ret
	.cfi_endproc
.LFE4645:
	.size	_ZStneRKSt17_Rb_tree_iteratorISt4pairIKP5node2St6vectorIS2_SaIS2_EEEESA_, .-_ZStneRKSt17_Rb_tree_iteratorISt4pairIKP5node2St6vectorIS2_SaIS2_EEEESA_
	.section	.text._ZNSt17_Rb_tree_iteratorISt4pairIKP5node2St6vectorIS2_SaIS2_EEEEppEv,"axG",@progbits,_ZNSt17_Rb_tree_iteratorISt4pairIKP5node2St6vectorIS2_SaIS2_EEEEppEv,comdat
	.align 2
	.weak	_ZNSt17_Rb_tree_iteratorISt4pairIKP5node2St6vectorIS2_SaIS2_EEEEppEv
	.type	_ZNSt17_Rb_tree_iteratorISt4pairIKP5node2St6vectorIS2_SaIS2_EEEEppEv, @function
_ZNSt17_Rb_tree_iteratorISt4pairIKP5node2St6vectorIS2_SaIS2_EEEEppEv:
.LFB4646:
	.cfi_startproc
	endbr64
	pushq	%rbp
	.cfi_def_cfa_offset 16
	.cfi_offset 6, -16
	movq	%rsp, %rbp
	.cfi_def_cfa_register 6
	subq	$16, %rsp
	movq	%rdi, -8(%rbp)
	movq	-8(%rbp), %rax
	movq	(%rax), %rax
	movq	%rax, %rdi
	call	_ZSt18_Rb_tree_incrementPSt18_Rb_tree_node_base@PLT
	movq	-8(%rbp), %rdx
	movq	%rax, (%rdx)
	movq	-8(%rbp), %rax
	leave
	.cfi_def_cfa 7, 8
	ret
	.cfi_endproc
.LFE4646:
	.size	_ZNSt17_Rb_tree_iteratorISt4pairIKP5node2St6vectorIS2_SaIS2_EEEEppEv, .-_ZNSt17_Rb_tree_iteratorISt4pairIKP5node2St6vectorIS2_SaIS2_EEEEppEv
	.section	.text._ZNKSt17_Rb_tree_iteratorISt4pairIKP5node2St6vectorIS2_SaIS2_EEEEdeEv,"axG",@progbits,_ZNKSt17_Rb_tree_iteratorISt4pairIKP5node2St6vectorIS2_SaIS2_EEEEdeEv,comdat
	.align 2
	.weak	_ZNKSt17_Rb_tree_iteratorISt4pairIKP5node2St6vectorIS2_SaIS2_EEEEdeEv
	.type	_ZNKSt17_Rb_tree_iteratorISt4pairIKP5node2St6vectorIS2_SaIS2_EEEEdeEv, @function
_ZNKSt17_Rb_tree_iteratorISt4pairIKP5node2St6vectorIS2_SaIS2_EEEEdeEv:
.LFB4647:
	.cfi_startproc
	endbr64
	pushq	%rbp
	.cfi_def_cfa_offset 16
	.cfi_offset 6, -16
	movq	%rsp, %rbp
	.cfi_def_cfa_register 6
	subq	$16, %rsp
	movq	%rdi, -8(%rbp)
	movq	-8(%rbp), %rax
	movq	(%rax), %rax
	movq	%rax, %rdi
	call	_ZNSt13_Rb_tree_nodeISt4pairIKP5node2St6vectorIS2_SaIS2_EEEE9_M_valptrEv
	leave
	.cfi_def_cfa 7, 8
	ret
	.cfi_endproc
.LFE4647:
	.size	_ZNKSt17_Rb_tree_iteratorISt4pairIKP5node2St6vectorIS2_SaIS2_EEEEdeEv, .-_ZNKSt17_Rb_tree_iteratorISt4pairIKP5node2St6vectorIS2_SaIS2_EEEEdeEv
	.section	.text._ZNSt6vectorIP5node2SaIS1_EEC2ERKS3_,"axG",@progbits,_ZNSt6vectorIP5node2SaIS1_EEC5ERKS3_,comdat
	.align 2
	.weak	_ZNSt6vectorIP5node2SaIS1_EEC2ERKS3_
	.type	_ZNSt6vectorIP5node2SaIS1_EEC2ERKS3_, @function
_ZNSt6vectorIP5node2SaIS1_EEC2ERKS3_:
.LFB4649:
	.cfi_startproc
	.cfi_personality 0x9b,DW.ref.__gxx_personality_v0
	.cfi_lsda 0x1b,.LLSDA4649
	endbr64
	pushq	%rbp
	.cfi_def_cfa_offset 16
	.cfi_offset 6, -16
	movq	%rsp, %rbp
	.cfi_def_cfa_register 6
	pushq	%r13
	pushq	%r12
	pushq	%rbx
	subq	$40, %rsp
	.cfi_offset 13, -24
	.cfi_offset 12, -32
	.cfi_offset 3, -40
	movq	%rdi, -56(%rbp)
	movq	%rsi, -64(%rbp)
	movq	%fs:40, %rax
	movq	%rax, -40(%rbp)
	xorl	%eax, %eax
	movq	-56(%rbp), %rbx
	movq	-64(%rbp), %rax
	movq	%rax, %rdi
	call	_ZNKSt12_Vector_baseIP5node2SaIS1_EE19_M_get_Tp_allocatorEv
	movq	%rax, %rdx
	leaq	-41(%rbp), %rax
	movq	%rdx, %rsi
	movq	%rax, %rdi
.LEHB31:
	call	_ZN9__gnu_cxx14__alloc_traitsISaIP5node2ES2_E17_S_select_on_copyERKS3_
.LEHE31:
	movq	-64(%rbp), %rax
	movq	%rax, %rdi
	call	_ZNKSt6vectorIP5node2SaIS1_EE4sizeEv
	movq	%rax, %rcx
	leaq	-41(%rbp), %rax
	movq	%rax, %rdx
	movq	%rcx, %rsi
	movq	%rbx, %rdi
.LEHB32:
	call	_ZNSt12_Vector_baseIP5node2SaIS1_EEC2EmRKS2_
.LEHE32:
	leaq	-41(%rbp), %rax
	movq	%rax, %rdi
	call	_ZNSaIP5node2ED1Ev
	movq	-56(%rbp), %rax
	movq	%rax, %rdi
	call	_ZNSt12_Vector_baseIP5node2SaIS1_EE19_M_get_Tp_allocatorEv
	movq	%rax, %r13
	movq	-56(%rbp), %rax
	movq	(%rax), %rbx
	movq	-64(%rbp), %rax
	movq	%rax, %rdi
	call	_ZNKSt6vectorIP5node2SaIS1_EE3endEv
	movq	%rax, %r12
	movq	-64(%rbp), %rax
	movq	%rax, %rdi
	call	_ZNKSt6vectorIP5node2SaIS1_EE5beginEv
	movq	%r13, %rcx
	movq	%rbx, %rdx
	movq	%r12, %rsi
	movq	%rax, %rdi
.LEHB33:
	call	_ZSt22__uninitialized_copy_aIN9__gnu_cxx17__normal_iteratorIPKP5node2St6vectorIS3_SaIS3_EEEEPS3_S3_ET0_T_SC_SB_RSaIT1_E
.LEHE33:
	movq	-56(%rbp), %rdx
	movq	%rax, 8(%rdx)
	nop
	movq	-40(%rbp), %rax
	subq	%fs:40, %rax
	je	.L295
	jmp	.L298
.L296:
	endbr64
	movq	%rax, %rbx
	leaq	-41(%rbp), %rax
	movq	%rax, %rdi
	call	_ZNSaIP5node2ED1Ev
	movq	%rbx, %rax
	movq	%rax, %rdi
.LEHB34:
	call	_Unwind_Resume@PLT
.L297:
	endbr64
	movq	%rax, %rbx
	movq	-56(%rbp), %rax
	movq	%rax, %rdi
	call	_ZNSt12_Vector_baseIP5node2SaIS1_EED2Ev
	movq	%rbx, %rax
	movq	%rax, %rdi
	call	_Unwind_Resume@PLT
.LEHE34:
.L298:
	call	__stack_chk_fail@PLT
.L295:
	addq	$40, %rsp
	popq	%rbx
	popq	%r12
	popq	%r13
	popq	%rbp
	.cfi_def_cfa 7, 8
	ret
	.cfi_endproc
.LFE4649:
	.section	.gcc_except_table
.LLSDA4649:
	.byte	0xff
	.byte	0xff
	.byte	0x1
	.uleb128 .LLSDACSE4649-.LLSDACSB4649
.LLSDACSB4649:
	.uleb128 .LEHB31-.LFB4649
	.uleb128 .LEHE31-.LEHB31
	.uleb128 0
	.uleb128 0
	.uleb128 .LEHB32-.LFB4649
	.uleb128 .LEHE32-.LEHB32
	.uleb128 .L296-.LFB4649
	.uleb128 0
	.uleb128 .LEHB33-.LFB4649
	.uleb128 .LEHE33-.LEHB33
	.uleb128 .L297-.LFB4649
	.uleb128 0
	.uleb128 .LEHB34-.LFB4649
	.uleb128 .LEHE34-.LEHB34
	.uleb128 0
	.uleb128 0
.LLSDACSE4649:
	.section	.text._ZNSt6vectorIP5node2SaIS1_EEC2ERKS3_,"axG",@progbits,_ZNSt6vectorIP5node2SaIS1_EEC5ERKS3_,comdat
	.size	_ZNSt6vectorIP5node2SaIS1_EEC2ERKS3_, .-_ZNSt6vectorIP5node2SaIS1_EEC2ERKS3_
	.weak	_ZNSt6vectorIP5node2SaIS1_EEC1ERKS3_
	.set	_ZNSt6vectorIP5node2SaIS1_EEC1ERKS3_,_ZNSt6vectorIP5node2SaIS1_EEC2ERKS3_
	.section	.text._ZNSt6vectorIP5node2SaIS1_EED2Ev,"axG",@progbits,_ZNSt6vectorIP5node2SaIS1_EED5Ev,comdat
	.align 2
	.weak	_ZNSt6vectorIP5node2SaIS1_EED2Ev
	.type	_ZNSt6vectorIP5node2SaIS1_EED2Ev, @function
_ZNSt6vectorIP5node2SaIS1_EED2Ev:
.LFB4652:
	.cfi_startproc
	.cfi_personality 0x9b,DW.ref.__gxx_personality_v0
	.cfi_lsda 0x1b,.LLSDA4652
	endbr64
	pushq	%rbp
	.cfi_def_cfa_offset 16
	.cfi_offset 6, -16
	movq	%rsp, %rbp
	.cfi_def_cfa_register 6
	subq	$16, %rsp
	movq	%rdi, -8(%rbp)
	movq	-8(%rbp), %rax
	movq	%rax, %rdi
	call	_ZNSt12_Vector_baseIP5node2SaIS1_EE19_M_get_Tp_allocatorEv
	movq	%rax, %rdx
	movq	-8(%rbp), %rax
	movq	8(%rax), %rcx
	movq	-8(%rbp), %rax
	movq	(%rax), %rax
	movq	%rcx, %rsi
	movq	%rax, %rdi
	call	_ZSt8_DestroyIPP5node2S1_EvT_S3_RSaIT0_E
	movq	-8(%rbp), %rax
	movq	%rax, %rdi
	call	_ZNSt12_Vector_baseIP5node2SaIS1_EED2Ev
	nop
	leave
	.cfi_def_cfa 7, 8
	ret
	.cfi_endproc
.LFE4652:
	.section	.gcc_except_table
.LLSDA4652:
	.byte	0xff
	.byte	0xff
	.byte	0x1
	.uleb128 .LLSDACSE4652-.LLSDACSB4652
.LLSDACSB4652:
.LLSDACSE4652:
	.section	.text._ZNSt6vectorIP5node2SaIS1_EED2Ev,"axG",@progbits,_ZNSt6vectorIP5node2SaIS1_EED5Ev,comdat
	.size	_ZNSt6vectorIP5node2SaIS1_EED2Ev, .-_ZNSt6vectorIP5node2SaIS1_EED2Ev
	.weak	_ZNSt6vectorIP5node2SaIS1_EED1Ev
	.set	_ZNSt6vectorIP5node2SaIS1_EED1Ev,_ZNSt6vectorIP5node2SaIS1_EED2Ev
	.section	.text._ZSt4sizeISt3mapIP5node2St6vectorIS2_SaIS2_EESt4lessIS2_ESaISt4pairIKS2_S5_EEEEDTcldtfp_4sizeEERKT_,"axG",@progbits,_ZSt4sizeISt3mapIP5node2St6vectorIS2_SaIS2_EESt4lessIS2_ESaISt4pairIKS2_S5_EEEEDTcldtfp_4sizeEERKT_,comdat
	.weak	_ZSt4sizeISt3mapIP5node2St6vectorIS2_SaIS2_EESt4lessIS2_ESaISt4pairIKS2_S5_EEEEDTcldtfp_4sizeEERKT_
	.type	_ZSt4sizeISt3mapIP5node2St6vectorIS2_SaIS2_EESt4lessIS2_ESaISt4pairIKS2_S5_EEEEDTcldtfp_4sizeEERKT_, @function
_ZSt4sizeISt3mapIP5node2St6vectorIS2_SaIS2_EESt4lessIS2_ESaISt4pairIKS2_S5_EEEEDTcldtfp_4sizeEERKT_:
.LFB4654:
	.cfi_startproc
	endbr64
	pushq	%rbp
	.cfi_def_cfa_offset 16
	.cfi_offset 6, -16
	movq	%rsp, %rbp
	.cfi_def_cfa_register 6
	subq	$16, %rsp
	movq	%rdi, -8(%rbp)
	movq	-8(%rbp), %rax
	movq	%rax, %rdi
	call	_ZNKSt3mapIP5node2St6vectorIS1_SaIS1_EESt4lessIS1_ESaISt4pairIKS1_S4_EEE4sizeEv
	leave
	.cfi_def_cfa 7, 8
	ret
	.cfi_endproc
.LFE4654:
	.size	_ZSt4sizeISt3mapIP5node2St6vectorIS2_SaIS2_EESt4lessIS2_ESaISt4pairIKS2_S5_EEEEDTcldtfp_4sizeEERKT_, .-_ZSt4sizeISt3mapIP5node2St6vectorIS2_SaIS2_EESt4lessIS2_ESaISt4pairIKS2_S5_EEEEDTcldtfp_4sizeEERKT_
	.section	.text._ZNSaIiEC2Ev,"axG",@progbits,_ZNSaIiEC5Ev,comdat
	.align 2
	.weak	_ZNSaIiEC2Ev
	.type	_ZNSaIiEC2Ev, @function
_ZNSaIiEC2Ev:
.LFB4656:
	.cfi_startproc
	endbr64
	pushq	%rbp
	.cfi_def_cfa_offset 16
	.cfi_offset 6, -16
	movq	%rsp, %rbp
	.cfi_def_cfa_register 6
	subq	$16, %rsp
	movq	%rdi, -8(%rbp)
	movq	-8(%rbp), %rax
	movq	%rax, %rdi
	call	_ZNSt15__new_allocatorIiEC2Ev
	nop
	leave
	.cfi_def_cfa 7, 8
	ret
	.cfi_endproc
.LFE4656:
	.size	_ZNSaIiEC2Ev, .-_ZNSaIiEC2Ev
	.weak	_ZNSaIiEC1Ev
	.set	_ZNSaIiEC1Ev,_ZNSaIiEC2Ev
	.section	.text._ZNSaIiED2Ev,"axG",@progbits,_ZNSaIiED5Ev,comdat
	.align 2
	.weak	_ZNSaIiED2Ev
	.type	_ZNSaIiED2Ev, @function
_ZNSaIiED2Ev:
.LFB4659:
	.cfi_startproc
	endbr64
	pushq	%rbp
	.cfi_def_cfa_offset 16
	.cfi_offset 6, -16
	movq	%rsp, %rbp
	.cfi_def_cfa_register 6
	subq	$16, %rsp
	movq	%rdi, -8(%rbp)
	movq	-8(%rbp), %rax
	movq	%rax, %rdi
	call	_ZNSt15__new_allocatorIiED2Ev
	nop
	leave
	.cfi_def_cfa 7, 8
	ret
	.cfi_endproc
.LFE4659:
	.size	_ZNSaIiED2Ev, .-_ZNSaIiED2Ev
	.weak	_ZNSaIiED1Ev
	.set	_ZNSaIiED1Ev,_ZNSaIiED2Ev
	.section	.text._ZNSt6vectorIiSaIiEEC2ESt16initializer_listIiERKS0_,"axG",@progbits,_ZNSt6vectorIiSaIiEEC5ESt16initializer_listIiERKS0_,comdat
	.align 2
	.weak	_ZNSt6vectorIiSaIiEEC2ESt16initializer_listIiERKS0_
	.type	_ZNSt6vectorIiSaIiEEC2ESt16initializer_listIiERKS0_, @function
_ZNSt6vectorIiSaIiEEC2ESt16initializer_listIiERKS0_:
.LFB4662:
	.cfi_startproc
	.cfi_personality 0x9b,DW.ref.__gxx_personality_v0
	.cfi_lsda 0x1b,.LLSDA4662
	endbr64
	pushq	%rbp
	.cfi_def_cfa_offset 16
	.cfi_offset 6, -16
	movq	%rsp, %rbp
	.cfi_def_cfa_register 6
	pushq	%rbx
	subq	$56, %rsp
	.cfi_offset 3, -24
	movq	%rdi, -40(%rbp)
	movq	%rsi, %rax
	movq	%rdx, %rsi
	movq	%rsi, %rdx
	movq	%rax, -64(%rbp)
	movq	%rdx, -56(%rbp)
	movq	%rcx, -48(%rbp)
	movq	%fs:40, %rax
	movq	%rax, -24(%rbp)
	xorl	%eax, %eax
	movq	-40(%rbp), %rax
	movq	-48(%rbp), %rdx
	movq	%rdx, %rsi
	movq	%rax, %rdi
	call	_ZNSt12_Vector_baseIiSaIiEEC2ERKS0_
	leaq	-64(%rbp), %rax
	movq	%rax, %rdi
	call	_ZNKSt16initializer_listIiE3endEv
	movq	%rax, %rbx
	leaq	-64(%rbp), %rax
	movq	%rax, %rdi
	call	_ZNKSt16initializer_listIiE5beginEv
	movq	%rax, %rcx
	movq	-40(%rbp), %rax
	movq	%rbx, %rdx
	movq	%rcx, %rsi
	movq	%rax, %rdi
.LEHB35:
	call	_ZNSt6vectorIiSaIiEE19_M_range_initializeIPKiEEvT_S5_St20forward_iterator_tag
.LEHE35:
	jmp	.L308
.L307:
	endbr64
	movq	%rax, %rbx
	movq	-40(%rbp), %rax
	movq	%rax, %rdi
	call	_ZNSt12_Vector_baseIiSaIiEED2Ev
	movq	%rbx, %rax
	movq	%rax, %rdi
.LEHB36:
	call	_Unwind_Resume@PLT
.LEHE36:
.L308:
	movq	-24(%rbp), %rax
	subq	%fs:40, %rax
	je	.L306
	call	__stack_chk_fail@PLT
.L306:
	movq	-8(%rbp), %rbx
	leave
	.cfi_def_cfa 7, 8
	ret
	.cfi_endproc
.LFE4662:
	.section	.gcc_except_table
.LLSDA4662:
	.byte	0xff
	.byte	0xff
	.byte	0x1
	.uleb128 .LLSDACSE4662-.LLSDACSB4662
.LLSDACSB4662:
	.uleb128 .LEHB35-.LFB4662
	.uleb128 .LEHE35-.LEHB35
	.uleb128 .L307-.LFB4662
	.uleb128 0
	.uleb128 .LEHB36-.LFB4662
	.uleb128 .LEHE36-.LEHB36
	.uleb128 0
	.uleb128 0
.LLSDACSE4662:
	.section	.text._ZNSt6vectorIiSaIiEEC2ESt16initializer_listIiERKS0_,"axG",@progbits,_ZNSt6vectorIiSaIiEEC5ESt16initializer_listIiERKS0_,comdat
	.size	_ZNSt6vectorIiSaIiEEC2ESt16initializer_listIiERKS0_, .-_ZNSt6vectorIiSaIiEEC2ESt16initializer_listIiERKS0_
	.weak	_ZNSt6vectorIiSaIiEEC1ESt16initializer_listIiERKS0_
	.set	_ZNSt6vectorIiSaIiEEC1ESt16initializer_listIiERKS0_,_ZNSt6vectorIiSaIiEEC2ESt16initializer_listIiERKS0_
	.section	.text._ZNSt6vectorIiSaIiEED2Ev,"axG",@progbits,_ZNSt6vectorIiSaIiEED5Ev,comdat
	.align 2
	.weak	_ZNSt6vectorIiSaIiEED2Ev
	.type	_ZNSt6vectorIiSaIiEED2Ev, @function
_ZNSt6vectorIiSaIiEED2Ev:
.LFB4665:
	.cfi_startproc
	.cfi_personality 0x9b,DW.ref.__gxx_personality_v0
	.cfi_lsda 0x1b,.LLSDA4665
	endbr64
	pushq	%rbp
	.cfi_def_cfa_offset 16
	.cfi_offset 6, -16
	movq	%rsp, %rbp
	.cfi_def_cfa_register 6
	subq	$16, %rsp
	movq	%rdi, -8(%rbp)
	movq	-8(%rbp), %rax
	movq	%rax, %rdi
	call	_ZNSt12_Vector_baseIiSaIiEE19_M_get_Tp_allocatorEv
	movq	%rax, %rdx
	movq	-8(%rbp), %rax
	movq	8(%rax), %rcx
	movq	-8(%rbp), %rax
	movq	(%rax), %rax
	movq	%rcx, %rsi
	movq	%rax, %rdi
	call	_ZSt8_DestroyIPiiEvT_S1_RSaIT0_E
	movq	-8(%rbp), %rax
	movq	%rax, %rdi
	call	_ZNSt12_Vector_baseIiSaIiEED2Ev
	nop
	leave
	.cfi_def_cfa 7, 8
	ret
	.cfi_endproc
.LFE4665:
	.section	.gcc_except_table
.LLSDA4665:
	.byte	0xff
	.byte	0xff
	.byte	0x1
	.uleb128 .LLSDACSE4665-.LLSDACSB4665
.LLSDACSB4665:
.LLSDACSE4665:
	.section	.text._ZNSt6vectorIiSaIiEED2Ev,"axG",@progbits,_ZNSt6vectorIiSaIiEED5Ev,comdat
	.size	_ZNSt6vectorIiSaIiEED2Ev, .-_ZNSt6vectorIiSaIiEED2Ev
	.weak	_ZNSt6vectorIiSaIiEED1Ev
	.set	_ZNSt6vectorIiSaIiEED1Ev,_ZNSt6vectorIiSaIiEED2Ev
	.section	.text._ZNSt6vectorIiSaIiEE5beginEv,"axG",@progbits,_ZNSt6vectorIiSaIiEE5beginEv,comdat
	.align 2
	.weak	_ZNSt6vectorIiSaIiEE5beginEv
	.type	_ZNSt6vectorIiSaIiEE5beginEv, @function
_ZNSt6vectorIiSaIiEE5beginEv:
.LFB4667:
	.cfi_startproc
	endbr64
	pushq	%rbp
	.cfi_def_cfa_offset 16
	.cfi_offset 6, -16
	movq	%rsp, %rbp
	.cfi_def_cfa_register 6
	subq	$32, %rsp
	movq	%rdi, -24(%rbp)
	movq	%fs:40, %rax
	movq	%rax, -8(%rbp)
	xorl	%eax, %eax
	movq	-24(%rbp), %rdx
	leaq	-16(%rbp), %rax
	movq	%rdx, %rsi
	movq	%rax, %rdi
	call	_ZN9__gnu_cxx17__normal_iteratorIPiSt6vectorIiSaIiEEEC1ERKS1_
	movq	-16(%rbp), %rax
	movq	-8(%rbp), %rdx
	subq	%fs:40, %rdx
	je	.L312
	call	__stack_chk_fail@PLT
.L312:
	leave
	.cfi_def_cfa 7, 8
	ret
	.cfi_endproc
.LFE4667:
	.size	_ZNSt6vectorIiSaIiEE5beginEv, .-_ZNSt6vectorIiSaIiEE5beginEv
	.section	.text._ZNSt6vectorIiSaIiEE3endEv,"axG",@progbits,_ZNSt6vectorIiSaIiEE3endEv,comdat
	.align 2
	.weak	_ZNSt6vectorIiSaIiEE3endEv
	.type	_ZNSt6vectorIiSaIiEE3endEv, @function
_ZNSt6vectorIiSaIiEE3endEv:
.LFB4668:
	.cfi_startproc
	endbr64
	pushq	%rbp
	.cfi_def_cfa_offset 16
	.cfi_offset 6, -16
	movq	%rsp, %rbp
	.cfi_def_cfa_register 6
	subq	$32, %rsp
	movq	%rdi, -24(%rbp)
	movq	%fs:40, %rax
	movq	%rax, -8(%rbp)
	xorl	%eax, %eax
	movq	-24(%rbp), %rax
	leaq	8(%rax), %rdx
	leaq	-16(%rbp), %rax
	movq	%rdx, %rsi
	movq	%rax, %rdi
	call	_ZN9__gnu_cxx17__normal_iteratorIPiSt6vectorIiSaIiEEEC1ERKS1_
	movq	-16(%rbp), %rax
	movq	-8(%rbp), %rdx
	subq	%fs:40, %rdx
	je	.L315
	call	__stack_chk_fail@PLT
.L315:
	leave
	.cfi_def_cfa 7, 8
	ret
	.cfi_endproc
.LFE4668:
	.size	_ZNSt6vectorIiSaIiEE3endEv, .-_ZNSt6vectorIiSaIiEE3endEv
	.section	.text._Z9QuickSortIiEvRSt6vectorIT_SaIS1_EENS3_8iteratorES5_,"axG",@progbits,_Z9QuickSortIiEvRSt6vectorIT_SaIS1_EENS3_8iteratorES5_,comdat
	.weak	_Z9QuickSortIiEvRSt6vectorIT_SaIS1_EENS3_8iteratorES5_
	.type	_Z9QuickSortIiEvRSt6vectorIT_SaIS1_EENS3_8iteratorES5_, @function
_Z9QuickSortIiEvRSt6vectorIT_SaIS1_EENS3_8iteratorES5_:
.LFB4669:
	.cfi_startproc
	endbr64
	pushq	%rbp
	.cfi_def_cfa_offset 16
	.cfi_offset 6, -16
	movq	%rsp, %rbp
	.cfi_def_cfa_register 6
	pushq	%rbx
	subq	$88, %rsp
	.cfi_offset 3, -24
	movq	%rdi, -72(%rbp)
	movq	%rsi, -80(%rbp)
	movq	%rdx, -88(%rbp)
	movq	%fs:40, %rax
	movq	%rax, -24(%rbp)
	xorl	%eax, %eax
	movq	-80(%rbp), %rax
	movq	%rax, -56(%rbp)
	movq	$0, -48(%rbp)
	movq	-72(%rbp), %rax
	movq	%rax, %rdi
	call	_ZNSt6vectorIiSaIiEE3endEv
	movq	%rax, -40(%rbp)
	leaq	-40(%rbp), %rdx
	leaq	-88(%rbp), %rax
	movq	%rdx, %rsi
	movq	%rax, %rdi
	call	_ZN9__gnu_cxxneIPiSt6vectorIiSaIiEEEEbRKNS_17__normal_iteratorIT_T0_EESA_
	testb	%al, %al
	je	.L317
	movq	-88(%rbp), %rax
	movq	%rax, -48(%rbp)
	jmp	.L318
.L317:
	leaq	-88(%rbp), %rax
	movl	$1, %esi
	movq	%rax, %rdi
	call	_ZNK9__gnu_cxx17__normal_iteratorIPiSt6vectorIiSaIiEEEmiEl
	movq	%rax, -88(%rbp)
.L318:
	movq	-88(%rbp), %rdx
	movq	-80(%rbp), %rax
	movq	%rdx, %rsi
	movq	%rax, %rdi
	call	_ZSt8distanceIN9__gnu_cxx17__normal_iteratorIPiSt6vectorIiSaIiEEEEENSt15iterator_traitsIT_E15difference_typeES8_S8_
	movq	%rax, -32(%rbp)
	cmpq	$1, -32(%rbp)
	jle	.L319
	call	rand@PLT
	cltq
	movq	-32(%rbp), %rdx
	leaq	-1(%rdx), %rcx
	cqto
	idivq	%rcx
	leaq	-80(%rbp), %rax
	movq	%rdx, %rsi
	movq	%rax, %rdi
	call	_ZNK9__gnu_cxx17__normal_iteratorIPiSt6vectorIiSaIiEEEplEl
	movq	%rax, -40(%rbp)
	jmp	.L326
.L319:
	movq	-80(%rbp), %rax
	movq	%rax, -40(%rbp)
	jmp	.L326
.L323:
	leaq	-56(%rbp), %rax
	movq	%rax, %rdi
	call	_ZN9__gnu_cxx17__normal_iteratorIPiSt6vectorIiSaIiEEEppEv
.L322:
	leaq	-56(%rbp), %rax
	movq	%rax, %rdi
	call	_ZNK9__gnu_cxx17__normal_iteratorIPiSt6vectorIiSaIiEEEdeEv
	movl	(%rax), %ebx
	leaq	-40(%rbp), %rax
	movq	%rax, %rdi
	call	_ZNK9__gnu_cxx17__normal_iteratorIPiSt6vectorIiSaIiEEEdeEv
	movl	(%rax), %eax
	cmpl	%eax, %ebx
	setl	%al
	testb	%al, %al
	jne	.L323
	jmp	.L324
.L325:
	leaq	-48(%rbp), %rax
	movq	%rax, %rdi
	call	_ZN9__gnu_cxx17__normal_iteratorIPiSt6vectorIiSaIiEEEmmEv
.L324:
	leaq	-48(%rbp), %rax
	movq	%rax, %rdi
	call	_ZNK9__gnu_cxx17__normal_iteratorIPiSt6vectorIiSaIiEEEdeEv
	movl	(%rax), %ebx
	leaq	-40(%rbp), %rax
	movq	%rax, %rdi
	call	_ZNK9__gnu_cxx17__normal_iteratorIPiSt6vectorIiSaIiEEEdeEv
	movl	(%rax), %eax
	cmpl	%eax, %ebx
	setg	%al
	testb	%al, %al
	jne	.L325
	leaq	-48(%rbp), %rdx
	leaq	-56(%rbp), %rax
	movq	%rdx, %rsi
	movq	%rax, %rdi
	call	_ZN9__gnu_cxxleIPiSt6vectorIiSaIiEEEEbRKNS_17__normal_iteratorIT_T0_EESA_
	testb	%al, %al
	je	.L326
	leaq	-48(%rbp), %rax
	movq	%rax, %rdi
	call	_ZNK9__gnu_cxx17__normal_iteratorIPiSt6vectorIiSaIiEEEdeEv
	movq	%rax, %rbx
	leaq	-56(%rbp), %rax
	movq	%rax, %rdi
	call	_ZNK9__gnu_cxx17__normal_iteratorIPiSt6vectorIiSaIiEEEdeEv
	movq	%rbx, %rsi
	movq	%rax, %rdi
	call	_ZSt4swapIiENSt9enable_ifIXsrSt6__and_IJSt6__not_ISt15__is_tuple_likeIT_EESt21is_move_constructibleIS4_ESt18is_move_assignableIS4_EEE5valueEvE4typeERS4_SE_
	leaq	-56(%rbp), %rax
	movq	%rax, %rdi
	call	_ZN9__gnu_cxx17__normal_iteratorIPiSt6vectorIiSaIiEEEppEv
	leaq	-48(%rbp), %rax
	movq	%rax, %rdi
	call	_ZN9__gnu_cxx17__normal_iteratorIPiSt6vectorIiSaIiEEEmmEv
.L326:
	leaq	-48(%rbp), %rdx
	leaq	-56(%rbp), %rax
	movq	%rdx, %rsi
	movq	%rax, %rdi
	call	_ZN9__gnu_cxxltIPiSt6vectorIiSaIiEEEEbRKNS_17__normal_iteratorIT_T0_EESA_
	testb	%al, %al
	jne	.L322
	leaq	-80(%rbp), %rdx
	leaq	-48(%rbp), %rax
	movq	%rdx, %rsi
	movq	%rax, %rdi
	call	_ZN9__gnu_cxxgtIPiSt6vectorIiSaIiEEEEbRKNS_17__normal_iteratorIT_T0_EESA_
	testb	%al, %al
	je	.L328
	movq	-48(%rbp), %rdx
	movq	-80(%rbp), %rcx
	movq	-72(%rbp), %rax
	movq	%rcx, %rsi
	movq	%rax, %rdi
	call	_Z9QuickSortIiEvRSt6vectorIT_SaIS1_EENS3_8iteratorES5_
.L328:
	leaq	-88(%rbp), %rdx
	leaq	-56(%rbp), %rax
	movq	%rdx, %rsi
	movq	%rax, %rdi
	call	_ZN9__gnu_cxxltIPiSt6vectorIiSaIiEEEEbRKNS_17__normal_iteratorIT_T0_EESA_
	testb	%al, %al
	je	.L331
	movq	-88(%rbp), %rdx
	movq	-56(%rbp), %rcx
	movq	-72(%rbp), %rax
	movq	%rcx, %rsi
	movq	%rax, %rdi
	call	_Z9QuickSortIiEvRSt6vectorIT_SaIS1_EENS3_8iteratorES5_
.L331:
	nop
	movq	-24(%rbp), %rax
	subq	%fs:40, %rax
	je	.L330
	call	__stack_chk_fail@PLT
.L330:
	movq	-8(%rbp), %rbx
	leave
	.cfi_def_cfa 7, 8
	ret
	.cfi_endproc
.LFE4669:
	.size	_Z9QuickSortIiEvRSt6vectorIT_SaIS1_EENS3_8iteratorES5_, .-_Z9QuickSortIiEvRSt6vectorIT_SaIS1_EENS3_8iteratorES5_
	.section	.text._ZNSt4pairIiNSt7__cxx1112basic_stringIcSt11char_traitsIcESaIcEEEEC2IiRA6_KcLb1EEEOT_OT0_,"axG",@progbits,_ZNSt4pairIiNSt7__cxx1112basic_stringIcSt11char_traitsIcESaIcEEEEC5IiRA6_KcLb1EEEOT_OT0_,comdat
	.align 2
	.weak	_ZNSt4pairIiNSt7__cxx1112basic_stringIcSt11char_traitsIcESaIcEEEEC2IiRA6_KcLb1EEEOT_OT0_
	.type	_ZNSt4pairIiNSt7__cxx1112basic_stringIcSt11char_traitsIcESaIcEEEEC2IiRA6_KcLb1EEEOT_OT0_, @function
_ZNSt4pairIiNSt7__cxx1112basic_stringIcSt11char_traitsIcESaIcEEEEC2IiRA6_KcLb1EEEOT_OT0_:
.LFB4674:
	.cfi_startproc
	.cfi_personality 0x9b,DW.ref.__gxx_personality_v0
	.cfi_lsda 0x1b,.LLSDA4674
	endbr64
	pushq	%rbp
	.cfi_def_cfa_offset 16
	.cfi_offset 6, -16
	movq	%rsp, %rbp
	.cfi_def_cfa_register 6
	pushq	%rbx
	subq	$56, %rsp
	.cfi_offset 3, -24
	movq	%rdi, -40(%rbp)
	movq	%rsi, -48(%rbp)
	movq	%rdx, -56(%rbp)
	movq	%fs:40, %rax
	movq	%rax, -24(%rbp)
	xorl	%eax, %eax
	movq	-48(%rbp), %rax
	movq	%rax, %rdi
	call	_ZSt7forwardIiEOT_RNSt16remove_referenceIS0_E4typeE
	movl	(%rax), %edx
	movq	-40(%rbp), %rax
	movl	%edx, (%rax)
	movq	-40(%rbp), %rax
	leaq	8(%rax), %rbx
	leaq	-25(%rbp), %rax
	movq	%rax, %rdi
	call	_ZNSaIcEC1Ev@PLT
	movq	-56(%rbp), %rax
	movq	%rax, %rdi
	call	_ZSt7forwardIRA6_KcEOT_RNSt16remove_referenceIS3_E4typeE
	movq	%rax, %rcx
	leaq	-25(%rbp), %rax
	movq	%rax, %rdx
	movq	%rcx, %rsi
	movq	%rbx, %rdi
.LEHB37:
	call	_ZNSt7__cxx1112basic_stringIcSt11char_traitsIcESaIcEEC1IS3_EEPKcRKS3_
.LEHE37:
	leaq	-25(%rbp), %rax
	movq	%rax, %rdi
	call	_ZNSaIcED1Ev@PLT
	nop
	movq	-24(%rbp), %rax
	subq	%fs:40, %rax
	je	.L334
	jmp	.L336
.L335:
	endbr64
	movq	%rax, %rbx
	leaq	-25(%rbp), %rax
	movq	%rax, %rdi
	call	_ZNSaIcED1Ev@PLT
	movq	%rbx, %rax
	movq	%rax, %rdi
.LEHB38:
	call	_Unwind_Resume@PLT
.LEHE38:
.L336:
	call	__stack_chk_fail@PLT
.L334:
	movq	-8(%rbp), %rbx
	leave
	.cfi_def_cfa 7, 8
	ret
	.cfi_endproc
.LFE4674:
	.section	.gcc_except_table
.LLSDA4674:
	.byte	0xff
	.byte	0xff
	.byte	0x1
	.uleb128 .LLSDACSE4674-.LLSDACSB4674
.LLSDACSB4674:
	.uleb128 .LEHB37-.LFB4674
	.uleb128 .LEHE37-.LEHB37
	.uleb128 .L335-.LFB4674
	.uleb128 0
	.uleb128 .LEHB38-.LFB4674
	.uleb128 .LEHE38-.LEHB38
	.uleb128 0
	.uleb128 0
.LLSDACSE4674:
	.section	.text._ZNSt4pairIiNSt7__cxx1112basic_stringIcSt11char_traitsIcESaIcEEEEC2IiRA6_KcLb1EEEOT_OT0_,"axG",@progbits,_ZNSt4pairIiNSt7__cxx1112basic_stringIcSt11char_traitsIcESaIcEEEEC5IiRA6_KcLb1EEEOT_OT0_,comdat
	.size	_ZNSt4pairIiNSt7__cxx1112basic_stringIcSt11char_traitsIcESaIcEEEEC2IiRA6_KcLb1EEEOT_OT0_, .-_ZNSt4pairIiNSt7__cxx1112basic_stringIcSt11char_traitsIcESaIcEEEEC2IiRA6_KcLb1EEEOT_OT0_
	.weak	_ZNSt4pairIiNSt7__cxx1112basic_stringIcSt11char_traitsIcESaIcEEEEC1IiRA6_KcLb1EEEOT_OT0_
	.set	_ZNSt4pairIiNSt7__cxx1112basic_stringIcSt11char_traitsIcESaIcEEEEC1IiRA6_KcLb1EEEOT_OT0_,_ZNSt4pairIiNSt7__cxx1112basic_stringIcSt11char_traitsIcESaIcEEEEC2IiRA6_KcLb1EEEOT_OT0_
	.section	.text._ZN6BSTreeINSt7__cxx1112basic_stringIcSt11char_traitsIcESaIcEEEEC2ESt4pairIiS5_E,"axG",@progbits,_ZN6BSTreeINSt7__cxx1112basic_stringIcSt11char_traitsIcESaIcEEEEC5ESt4pairIiS5_E,comdat
	.align 2
	.weak	_ZN6BSTreeINSt7__cxx1112basic_stringIcSt11char_traitsIcESaIcEEEEC2ESt4pairIiS5_E
	.type	_ZN6BSTreeINSt7__cxx1112basic_stringIcSt11char_traitsIcESaIcEEEEC2ESt4pairIiS5_E, @function
_ZN6BSTreeINSt7__cxx1112basic_stringIcSt11char_traitsIcESaIcEEEEC2ESt4pairIiS5_E:
.LFB4677:
	.cfi_startproc
	.cfi_personality 0x9b,DW.ref.__gxx_personality_v0
	.cfi_lsda 0x1b,.LLSDA4677
	endbr64
	pushq	%rbp
	.cfi_def_cfa_offset 16
	.cfi_offset 6, -16
	movq	%rsp, %rbp
	.cfi_def_cfa_register 6
	pushq	%r13
	pushq	%r12
	pushq	%rbx
	subq	$24, %rsp
	.cfi_offset 13, -24
	.cfi_offset 12, -32
	.cfi_offset 3, -40
	movq	%rdi, -40(%rbp)
	movq	%rsi, -48(%rbp)
	movl	$64, %edi
.LEHB39:
	call	_Znwm@PLT
.LEHE39:
	movq	%rax, %rbx
	movl	$1, %r13d
	pxor	%xmm0, %xmm0
	movups	%xmm0, (%rbx)
	movups	%xmm0, 16(%rbx)
	movups	%xmm0, 32(%rbx)
	movups	%xmm0, 48(%rbx)
	movq	-48(%rbp), %rax
	movl	(%rax), %eax
	movl	%eax, (%rbx)
	leaq	8(%rbx), %rax
	movq	-48(%rbp), %rdx
	addq	$8, %rdx
	movq	%rdx, %rsi
	movq	%rax, %rdi
.LEHB40:
	call	_ZNSt7__cxx1112basic_stringIcSt11char_traitsIcESaIcEEC1ERKS4_@PLT
.LEHE40:
	movq	-40(%rbp), %rax
	movq	%rbx, (%rax)
	movq	-40(%rbp), %rax
	movq	(%rax), %rdx
	movq	-40(%rbp), %rax
	movq	%rdx, %rsi
	movq	%rax, %rdi
.LEHB41:
	call	_ZN6BSTreeINSt7__cxx1112basic_stringIcSt11char_traitsIcESaIcEEEE22inicializar_nodo_vacioERNS6_6BSNodeE
	jmp	.L341
.L340:
	endbr64
	movq	%rax, %r12
	testb	%r13b, %r13b
	je	.L339
	movl	$64, %esi
	movq	%rbx, %rdi
	call	_ZdlPvm@PLT
.L339:
	movq	%r12, %rax
	movq	%rax, %rdi
	call	_Unwind_Resume@PLT
.LEHE41:
.L341:
	addq	$24, %rsp
	popq	%rbx
	popq	%r12
	popq	%r13
	popq	%rbp
	.cfi_def_cfa 7, 8
	ret
	.cfi_endproc
.LFE4677:
	.section	.gcc_except_table
.LLSDA4677:
	.byte	0xff
	.byte	0xff
	.byte	0x1
	.uleb128 .LLSDACSE4677-.LLSDACSB4677
.LLSDACSB4677:
	.uleb128 .LEHB39-.LFB4677
	.uleb128 .LEHE39-.LEHB39
	.uleb128 0
	.uleb128 0
	.uleb128 .LEHB40-.LFB4677
	.uleb128 .LEHE40-.LEHB40
	.uleb128 .L340-.LFB4677
	.uleb128 0
	.uleb128 .LEHB41-.LFB4677
	.uleb128 .LEHE41-.LEHB41
	.uleb128 0
	.uleb128 0
.LLSDACSE4677:
	.section	.text._ZN6BSTreeINSt7__cxx1112basic_stringIcSt11char_traitsIcESaIcEEEEC2ESt4pairIiS5_E,"axG",@progbits,_ZN6BSTreeINSt7__cxx1112basic_stringIcSt11char_traitsIcESaIcEEEEC5ESt4pairIiS5_E,comdat
	.size	_ZN6BSTreeINSt7__cxx1112basic_stringIcSt11char_traitsIcESaIcEEEEC2ESt4pairIiS5_E, .-_ZN6BSTreeINSt7__cxx1112basic_stringIcSt11char_traitsIcESaIcEEEEC2ESt4pairIiS5_E
	.weak	_ZN6BSTreeINSt7__cxx1112basic_stringIcSt11char_traitsIcESaIcEEEEC1ESt4pairIiS5_E
	.set	_ZN6BSTreeINSt7__cxx1112basic_stringIcSt11char_traitsIcESaIcEEEEC1ESt4pairIiS5_E,_ZN6BSTreeINSt7__cxx1112basic_stringIcSt11char_traitsIcESaIcEEEEC2ESt4pairIiS5_E
	.section	.text._ZN6BSTreeINSt7__cxx1112basic_stringIcSt11char_traitsIcESaIcEEEEixEi,"axG",@progbits,_ZN6BSTreeINSt7__cxx1112basic_stringIcSt11char_traitsIcESaIcEEEEixEi,comdat
	.align 2
	.weak	_ZN6BSTreeINSt7__cxx1112basic_stringIcSt11char_traitsIcESaIcEEEEixEi
	.type	_ZN6BSTreeINSt7__cxx1112basic_stringIcSt11char_traitsIcESaIcEEEEixEi, @function
_ZN6BSTreeINSt7__cxx1112basic_stringIcSt11char_traitsIcESaIcEEEEixEi:
.LFB4679:
	.cfi_startproc
	endbr64
	pushq	%rbp
	.cfi_def_cfa_offset 16
	.cfi_offset 6, -16
	movq	%rsp, %rbp
	.cfi_def_cfa_register 6
	movq	%rdi, -24(%rbp)
	movl	%esi, -28(%rbp)
	movq	-24(%rbp), %rax
	movq	(%rax), %rax
	movq	%rax, -8(%rbp)
	jmp	.L343
.L347:
	movq	-8(%rbp), %rax
	movl	(%rax), %eax
	cmpl	%eax, -28(%rbp)
	jle	.L344
	movq	-8(%rbp), %rax
	movq	56(%rax), %rax
	jmp	.L345
.L344:
	movq	-8(%rbp), %rax
	movq	48(%rax), %rax
.L345:
	movq	%rax, -8(%rbp)
.L343:
	movq	-8(%rbp), %rax
	movl	(%rax), %eax
	cmpl	%eax, -28(%rbp)
	je	.L346
	movq	-8(%rbp), %rax
	movl	(%rax), %eax
	testl	%eax, %eax
	jne	.L347
.L346:
	movq	-8(%rbp), %rax
	popq	%rbp
	.cfi_def_cfa 7, 8
	ret
	.cfi_endproc
.LFE4679:
	.size	_ZN6BSTreeINSt7__cxx1112basic_stringIcSt11char_traitsIcESaIcEEEEixEi, .-_ZN6BSTreeINSt7__cxx1112basic_stringIcSt11char_traitsIcESaIcEEEEixEi
	.section	.text._ZNSt4pairIiNSt7__cxx1112basic_stringIcSt11char_traitsIcESaIcEEEEC2IiRA5_KcLb1EEEOT_OT0_,"axG",@progbits,_ZNSt4pairIiNSt7__cxx1112basic_stringIcSt11char_traitsIcESaIcEEEEC5IiRA5_KcLb1EEEOT_OT0_,comdat
	.align 2
	.weak	_ZNSt4pairIiNSt7__cxx1112basic_stringIcSt11char_traitsIcESaIcEEEEC2IiRA5_KcLb1EEEOT_OT0_
	.type	_ZNSt4pairIiNSt7__cxx1112basic_stringIcSt11char_traitsIcESaIcEEEEC2IiRA5_KcLb1EEEOT_OT0_, @function
_ZNSt4pairIiNSt7__cxx1112basic_stringIcSt11char_traitsIcESaIcEEEEC2IiRA5_KcLb1EEEOT_OT0_:
.LFB4681:
	.cfi_startproc
	.cfi_personality 0x9b,DW.ref.__gxx_personality_v0
	.cfi_lsda 0x1b,.LLSDA4681
	endbr64
	pushq	%rbp
	.cfi_def_cfa_offset 16
	.cfi_offset 6, -16
	movq	%rsp, %rbp
	.cfi_def_cfa_register 6
	pushq	%rbx
	subq	$56, %rsp
	.cfi_offset 3, -24
	movq	%rdi, -40(%rbp)
	movq	%rsi, -48(%rbp)
	movq	%rdx, -56(%rbp)
	movq	%fs:40, %rax
	movq	%rax, -24(%rbp)
	xorl	%eax, %eax
	movq	-48(%rbp), %rax
	movq	%rax, %rdi
	call	_ZSt7forwardIiEOT_RNSt16remove_referenceIS0_E4typeE
	movl	(%rax), %edx
	movq	-40(%rbp), %rax
	movl	%edx, (%rax)
	movq	-40(%rbp), %rax
	leaq	8(%rax), %rbx
	leaq	-25(%rbp), %rax
	movq	%rax, %rdi
	call	_ZNSaIcEC1Ev@PLT
	movq	-56(%rbp), %rax
	movq	%rax, %rdi
	call	_ZSt7forwardIRA5_KcEOT_RNSt16remove_referenceIS3_E4typeE
	movq	%rax, %rcx
	leaq	-25(%rbp), %rax
	movq	%rax, %rdx
	movq	%rcx, %rsi
	movq	%rbx, %rdi
.LEHB42:
	call	_ZNSt7__cxx1112basic_stringIcSt11char_traitsIcESaIcEEC1IS3_EEPKcRKS3_
.LEHE42:
	leaq	-25(%rbp), %rax
	movq	%rax, %rdi
	call	_ZNSaIcED1Ev@PLT
	nop
	movq	-24(%rbp), %rax
	subq	%fs:40, %rax
	je	.L351
	jmp	.L353
.L352:
	endbr64
	movq	%rax, %rbx
	leaq	-25(%rbp), %rax
	movq	%rax, %rdi
	call	_ZNSaIcED1Ev@PLT
	movq	%rbx, %rax
	movq	%rax, %rdi
.LEHB43:
	call	_Unwind_Resume@PLT
.LEHE43:
.L353:
	call	__stack_chk_fail@PLT
.L351:
	movq	-8(%rbp), %rbx
	leave
	.cfi_def_cfa 7, 8
	ret
	.cfi_endproc
.LFE4681:
	.section	.gcc_except_table
.LLSDA4681:
	.byte	0xff
	.byte	0xff
	.byte	0x1
	.uleb128 .LLSDACSE4681-.LLSDACSB4681
.LLSDACSB4681:
	.uleb128 .LEHB42-.LFB4681
	.uleb128 .LEHE42-.LEHB42
	.uleb128 .L352-.LFB4681
	.uleb128 0
	.uleb128 .LEHB43-.LFB4681
	.uleb128 .LEHE43-.LEHB43
	.uleb128 0
	.uleb128 0
.LLSDACSE4681:
	.section	.text._ZNSt4pairIiNSt7__cxx1112basic_stringIcSt11char_traitsIcESaIcEEEEC2IiRA5_KcLb1EEEOT_OT0_,"axG",@progbits,_ZNSt4pairIiNSt7__cxx1112basic_stringIcSt11char_traitsIcESaIcEEEEC5IiRA5_KcLb1EEEOT_OT0_,comdat
	.size	_ZNSt4pairIiNSt7__cxx1112basic_stringIcSt11char_traitsIcESaIcEEEEC2IiRA5_KcLb1EEEOT_OT0_, .-_ZNSt4pairIiNSt7__cxx1112basic_stringIcSt11char_traitsIcESaIcEEEEC2IiRA5_KcLb1EEEOT_OT0_
	.weak	_ZNSt4pairIiNSt7__cxx1112basic_stringIcSt11char_traitsIcESaIcEEEEC1IiRA5_KcLb1EEEOT_OT0_
	.set	_ZNSt4pairIiNSt7__cxx1112basic_stringIcSt11char_traitsIcESaIcEEEEC1IiRA5_KcLb1EEEOT_OT0_,_ZNSt4pairIiNSt7__cxx1112basic_stringIcSt11char_traitsIcESaIcEEEEC2IiRA5_KcLb1EEEOT_OT0_
	.section	.text._ZN6BSTreeINSt7__cxx1112basic_stringIcSt11char_traitsIcESaIcEEEE6insertESt4pairIiS5_E,"axG",@progbits,_ZN6BSTreeINSt7__cxx1112basic_stringIcSt11char_traitsIcESaIcEEEE6insertESt4pairIiS5_E,comdat
	.align 2
	.weak	_ZN6BSTreeINSt7__cxx1112basic_stringIcSt11char_traitsIcESaIcEEEE6insertESt4pairIiS5_E
	.type	_ZN6BSTreeINSt7__cxx1112basic_stringIcSt11char_traitsIcESaIcEEEE6insertESt4pairIiS5_E, @function
_ZN6BSTreeINSt7__cxx1112basic_stringIcSt11char_traitsIcESaIcEEEE6insertESt4pairIiS5_E:
.LFB4683:
	.cfi_startproc
	endbr64
	pushq	%rbp
	.cfi_def_cfa_offset 16
	.cfi_offset 6, -16
	movq	%rsp, %rbp
	.cfi_def_cfa_register 6
	subq	$32, %rsp
	movq	%rdi, -24(%rbp)
	movq	%rsi, -32(%rbp)
	movq	-32(%rbp), %rax
	movl	(%rax), %edx
	movq	-24(%rbp), %rax
	movl	%edx, %esi
	movq	%rax, %rdi
	call	_ZN6BSTreeINSt7__cxx1112basic_stringIcSt11char_traitsIcESaIcEEEEixEi
	movq	%rax, -8(%rbp)
	movq	-32(%rbp), %rax
	movl	(%rax), %edx
	movq	-8(%rbp), %rax
	movl	%edx, (%rax)
	movq	-32(%rbp), %rax
	leaq	8(%rax), %rdx
	movq	-8(%rbp), %rax
	addq	$8, %rax
	movq	%rdx, %rsi
	movq	%rax, %rdi
	call	_ZNSt7__cxx1112basic_stringIcSt11char_traitsIcESaIcEEaSERKS4_@PLT
	movq	-8(%rbp), %rdx
	movq	-24(%rbp), %rax
	movq	%rdx, %rsi
	movq	%rax, %rdi
	call	_ZN6BSTreeINSt7__cxx1112basic_stringIcSt11char_traitsIcESaIcEEEE22inicializar_nodo_vacioERNS6_6BSNodeE
	nop
	leave
	.cfi_def_cfa 7, 8
	ret
	.cfi_endproc
.LFE4683:
	.size	_ZN6BSTreeINSt7__cxx1112basic_stringIcSt11char_traitsIcESaIcEEEE6insertESt4pairIiS5_E, .-_ZN6BSTreeINSt7__cxx1112basic_stringIcSt11char_traitsIcESaIcEEEE6insertESt4pairIiS5_E
	.section	.text._ZN6BSTreeINSt7__cxx1112basic_stringIcSt11char_traitsIcESaIcEEEE6BSNodeC2ERKS7_,"axG",@progbits,_ZN6BSTreeINSt7__cxx1112basic_stringIcSt11char_traitsIcESaIcEEEE6BSNodeC5ERKS7_,comdat
	.align 2
	.weak	_ZN6BSTreeINSt7__cxx1112basic_stringIcSt11char_traitsIcESaIcEEEE6BSNodeC2ERKS7_
	.type	_ZN6BSTreeINSt7__cxx1112basic_stringIcSt11char_traitsIcESaIcEEEE6BSNodeC2ERKS7_, @function
_ZN6BSTreeINSt7__cxx1112basic_stringIcSt11char_traitsIcESaIcEEEE6BSNodeC2ERKS7_:
.LFB4686:
	.cfi_startproc
	endbr64
	pushq	%rbp
	.cfi_def_cfa_offset 16
	.cfi_offset 6, -16
	movq	%rsp, %rbp
	.cfi_def_cfa_register 6
	subq	$16, %rsp
	movq	%rdi, -8(%rbp)
	movq	%rsi, -16(%rbp)
	movq	-16(%rbp), %rax
	movl	(%rax), %edx
	movq	-8(%rbp), %rax
	movl	%edx, (%rax)
	movq	-8(%rbp), %rax
	addq	$8, %rax
	movq	-16(%rbp), %rdx
	addq	$8, %rdx
	movq	%rdx, %rsi
	movq	%rax, %rdi
	call	_ZNSt7__cxx1112basic_stringIcSt11char_traitsIcESaIcEEC1ERKS4_@PLT
	movq	-16(%rbp), %rax
	movq	40(%rax), %rdx
	movq	-8(%rbp), %rax
	movq	%rdx, 40(%rax)
	movq	-16(%rbp), %rax
	movq	48(%rax), %rdx
	movq	-8(%rbp), %rax
	movq	%rdx, 48(%rax)
	movq	-16(%rbp), %rax
	movq	56(%rax), %rdx
	movq	-8(%rbp), %rax
	movq	%rdx, 56(%rax)
	nop
	leave
	.cfi_def_cfa 7, 8
	ret
	.cfi_endproc
.LFE4686:
	.size	_ZN6BSTreeINSt7__cxx1112basic_stringIcSt11char_traitsIcESaIcEEEE6BSNodeC2ERKS7_, .-_ZN6BSTreeINSt7__cxx1112basic_stringIcSt11char_traitsIcESaIcEEEE6BSNodeC2ERKS7_
	.weak	_ZN6BSTreeINSt7__cxx1112basic_stringIcSt11char_traitsIcESaIcEEEE6BSNodeC1ERKS7_
	.set	_ZN6BSTreeINSt7__cxx1112basic_stringIcSt11char_traitsIcESaIcEEEE6BSNodeC1ERKS7_,_ZN6BSTreeINSt7__cxx1112basic_stringIcSt11char_traitsIcESaIcEEEE6BSNodeC2ERKS7_
	.section	.text._ZN6BSTreeINSt7__cxx1112basic_stringIcSt11char_traitsIcESaIcEEEE3maxEi,"axG",@progbits,_ZN6BSTreeINSt7__cxx1112basic_stringIcSt11char_traitsIcESaIcEEEE3maxEi,comdat
	.align 2
	.weak	_ZN6BSTreeINSt7__cxx1112basic_stringIcSt11char_traitsIcESaIcEEEE3maxEi
	.type	_ZN6BSTreeINSt7__cxx1112basic_stringIcSt11char_traitsIcESaIcEEEE3maxEi, @function
_ZN6BSTreeINSt7__cxx1112basic_stringIcSt11char_traitsIcESaIcEEEE3maxEi:
.LFB4684:
	.cfi_startproc
	endbr64
	pushq	%rbp
	.cfi_def_cfa_offset 16
	.cfi_offset 6, -16
	movq	%rsp, %rbp
	.cfi_def_cfa_register 6
	subq	$48, %rsp
	movq	%rdi, -24(%rbp)
	movq	%rsi, -32(%rbp)
	movl	%edx, -36(%rbp)
	movl	-36(%rbp), %edx
	movq	-32(%rbp), %rax
	movl	%edx, %esi
	movq	%rax, %rdi
	call	_ZN6BSTreeINSt7__cxx1112basic_stringIcSt11char_traitsIcESaIcEEEEixEi
	movq	%rax, -8(%rbp)
	jmp	.L358
.L359:
	movq	-8(%rbp), %rax
	movq	56(%rax), %rax
	movq	%rax, -8(%rbp)
.L358:
	movq	-8(%rbp), %rax
	movq	56(%rax), %rax
	movl	(%rax), %eax
	testl	%eax, %eax
	jne	.L359
	movq	-8(%rbp), %rdx
	movq	-24(%rbp), %rax
	movq	%rdx, %rsi
	movq	%rax, %rdi
	call	_ZN6BSTreeINSt7__cxx1112basic_stringIcSt11char_traitsIcESaIcEEEE6BSNodeC1ERKS7_
	movq	-24(%rbp), %rax
	leave
	.cfi_def_cfa 7, 8
	ret
	.cfi_endproc
.LFE4684:
	.size	_ZN6BSTreeINSt7__cxx1112basic_stringIcSt11char_traitsIcESaIcEEEE3maxEi, .-_ZN6BSTreeINSt7__cxx1112basic_stringIcSt11char_traitsIcESaIcEEEE3maxEi
	.section	.text._ZN9__gnu_cxx11char_traitsIcE2eqERKcS3_,"axG",@progbits,_ZN9__gnu_cxx11char_traitsIcE2eqERKcS3_,comdat
	.weak	_ZN9__gnu_cxx11char_traitsIcE2eqERKcS3_
	.type	_ZN9__gnu_cxx11char_traitsIcE2eqERKcS3_, @function
_ZN9__gnu_cxx11char_traitsIcE2eqERKcS3_:
.LFB4688:
	.cfi_startproc
	endbr64
	pushq	%rbp
	.cfi_def_cfa_offset 16
	.cfi_offset 6, -16
	movq	%rsp, %rbp
	.cfi_def_cfa_register 6
	movq	%rdi, -8(%rbp)
	movq	%rsi, -16(%rbp)
	movq	-8(%rbp), %rax
	movzbl	(%rax), %edx
	movq	-16(%rbp), %rax
	movzbl	(%rax), %eax
	cmpb	%al, %dl
	sete	%al
	popq	%rbp
	.cfi_def_cfa 7, 8
	ret
	.cfi_endproc
.LFE4688:
	.size	_ZN9__gnu_cxx11char_traitsIcE2eqERKcS3_, .-_ZN9__gnu_cxx11char_traitsIcE2eqERKcS3_
	.section	.text._ZZNSt7__cxx1112basic_stringIcSt11char_traitsIcESaIcEE12_M_constructIPKcEEvT_S8_St20forward_iterator_tagEN6_GuardC2EPS4_,"axG",@progbits,_ZZNSt7__cxx1112basic_stringIcSt11char_traitsIcESaIcEE12_M_constructIPKcEEvT_S8_St20forward_iterator_tagEN6_GuardC5EPS4_,comdat
	.align 2
	.weak	_ZZNSt7__cxx1112basic_stringIcSt11char_traitsIcESaIcEE12_M_constructIPKcEEvT_S8_St20forward_iterator_tagEN6_GuardC2EPS4_
	.type	_ZZNSt7__cxx1112basic_stringIcSt11char_traitsIcESaIcEE12_M_constructIPKcEEvT_S8_St20forward_iterator_tagEN6_GuardC2EPS4_, @function
_ZZNSt7__cxx1112basic_stringIcSt11char_traitsIcESaIcEE12_M_constructIPKcEEvT_S8_St20forward_iterator_tagEN6_GuardC2EPS4_:
.LFB4725:
	.cfi_startproc
	endbr64
	pushq	%rbp
	.cfi_def_cfa_offset 16
	.cfi_offset 6, -16
	movq	%rsp, %rbp
	.cfi_def_cfa_register 6
	movq	%rdi, -8(%rbp)
	movq	%rsi, -16(%rbp)
	movq	-8(%rbp), %rax
	movq	-16(%rbp), %rdx
	movq	%rdx, (%rax)
	nop
	popq	%rbp
	.cfi_def_cfa 7, 8
	ret
	.cfi_endproc
.LFE4725:
	.size	_ZZNSt7__cxx1112basic_stringIcSt11char_traitsIcESaIcEE12_M_constructIPKcEEvT_S8_St20forward_iterator_tagEN6_GuardC2EPS4_, .-_ZZNSt7__cxx1112basic_stringIcSt11char_traitsIcESaIcEE12_M_constructIPKcEEvT_S8_St20forward_iterator_tagEN6_GuardC2EPS4_
	.weak	_ZZNSt7__cxx1112basic_stringIcSt11char_traitsIcESaIcEE12_M_constructIPKcEEvT_S8_St20forward_iterator_tagEN6_GuardC1EPS4_
	.set	_ZZNSt7__cxx1112basic_stringIcSt11char_traitsIcESaIcEE12_M_constructIPKcEEvT_S8_St20forward_iterator_tagEN6_GuardC1EPS4_,_ZZNSt7__cxx1112basic_stringIcSt11char_traitsIcESaIcEE12_M_constructIPKcEEvT_S8_St20forward_iterator_tagEN6_GuardC2EPS4_
	.section	.text._ZZNSt7__cxx1112basic_stringIcSt11char_traitsIcESaIcEE12_M_constructIPKcEEvT_S8_St20forward_iterator_tagEN6_GuardD2Ev,"axG",@progbits,_ZZNSt7__cxx1112basic_stringIcSt11char_traitsIcESaIcEE12_M_constructIPKcEEvT_S8_St20forward_iterator_tagEN6_GuardD5Ev,comdat
	.align 2
	.weak	_ZZNSt7__cxx1112basic_stringIcSt11char_traitsIcESaIcEE12_M_constructIPKcEEvT_S8_St20forward_iterator_tagEN6_GuardD2Ev
	.type	_ZZNSt7__cxx1112basic_stringIcSt11char_traitsIcESaIcEE12_M_constructIPKcEEvT_S8_St20forward_iterator_tagEN6_GuardD2Ev, @function
_ZZNSt7__cxx1112basic_stringIcSt11char_traitsIcESaIcEE12_M_constructIPKcEEvT_S8_St20forward_iterator_tagEN6_GuardD2Ev:
.LFB4728:
	.cfi_startproc
	.cfi_personality 0x9b,DW.ref.__gxx_personality_v0
	.cfi_lsda 0x1b,.LLSDA4728
	endbr64
	pushq	%rbp
	.cfi_def_cfa_offset 16
	.cfi_offset 6, -16
	movq	%rsp, %rbp
	.cfi_def_cfa_register 6
	subq	$16, %rsp
	movq	%rdi, -8(%rbp)
	movq	-8(%rbp), %rax
	movq	(%rax), %rax
	testq	%rax, %rax
	je	.L366
	movq	-8(%rbp), %rax
	movq	(%rax), %rax
	movq	%rax, %rdi
	call	_ZNSt7__cxx1112basic_stringIcSt11char_traitsIcESaIcEE10_M_disposeEv@PLT
.L366:
	nop
	leave
	.cfi_def_cfa 7, 8
	ret
	.cfi_endproc
.LFE4728:
	.section	.gcc_except_table
.LLSDA4728:
	.byte	0xff
	.byte	0xff
	.byte	0x1
	.uleb128 .LLSDACSE4728-.LLSDACSB4728
.LLSDACSB4728:
.LLSDACSE4728:
	.section	.text._ZZNSt7__cxx1112basic_stringIcSt11char_traitsIcESaIcEE12_M_constructIPKcEEvT_S8_St20forward_iterator_tagEN6_GuardD2Ev,"axG",@progbits,_ZZNSt7__cxx1112basic_stringIcSt11char_traitsIcESaIcEE12_M_constructIPKcEEvT_S8_St20forward_iterator_tagEN6_GuardD5Ev,comdat
	.size	_ZZNSt7__cxx1112basic_stringIcSt11char_traitsIcESaIcEE12_M_constructIPKcEEvT_S8_St20forward_iterator_tagEN6_GuardD2Ev, .-_ZZNSt7__cxx1112basic_stringIcSt11char_traitsIcESaIcEE12_M_constructIPKcEEvT_S8_St20forward_iterator_tagEN6_GuardD2Ev
	.weak	_ZZNSt7__cxx1112basic_stringIcSt11char_traitsIcESaIcEE12_M_constructIPKcEEvT_S8_St20forward_iterator_tagEN6_GuardD1Ev
	.set	_ZZNSt7__cxx1112basic_stringIcSt11char_traitsIcESaIcEE12_M_constructIPKcEEvT_S8_St20forward_iterator_tagEN6_GuardD1Ev,_ZZNSt7__cxx1112basic_stringIcSt11char_traitsIcESaIcEE12_M_constructIPKcEEvT_S8_St20forward_iterator_tagEN6_GuardD2Ev
	.section	.text._ZNSt7__cxx1112basic_stringIcSt11char_traitsIcESaIcEE12_M_constructIPKcEEvT_S8_St20forward_iterator_tag,"axG",@progbits,_ZNSt7__cxx1112basic_stringIcSt11char_traitsIcESaIcEE12_M_constructIPKcEEvT_S8_St20forward_iterator_tag,comdat
	.align 2
	.weak	_ZNSt7__cxx1112basic_stringIcSt11char_traitsIcESaIcEE12_M_constructIPKcEEvT_S8_St20forward_iterator_tag
	.type	_ZNSt7__cxx1112basic_stringIcSt11char_traitsIcESaIcEE12_M_constructIPKcEEvT_S8_St20forward_iterator_tag, @function
_ZNSt7__cxx1112basic_stringIcSt11char_traitsIcESaIcEE12_M_constructIPKcEEvT_S8_St20forward_iterator_tag:
.LFB4723:
	.cfi_startproc
	endbr64
	pushq	%rbp
	.cfi_def_cfa_offset 16
	.cfi_offset 6, -16
	movq	%rsp, %rbp
	.cfi_def_cfa_register 6
	subq	$64, %rsp
	movq	%rdi, -40(%rbp)
	movq	%rsi, -48(%rbp)
	movq	%rdx, -56(%rbp)
	movq	%fs:40, %rax
	movq	%rax, -8(%rbp)
	xorl	%eax, %eax
	movq	-56(%rbp), %rdx
	movq	-48(%rbp), %rax
	movq	%rdx, %rsi
	movq	%rax, %rdi
	call	_ZSt8distanceIPKcENSt15iterator_traitsIT_E15difference_typeES3_S3_
	movq	%rax, -32(%rbp)
	movq	-32(%rbp), %rax
	cmpq	$15, %rax
	jbe	.L368
	leaq	-32(%rbp), %rcx
	movq	-40(%rbp), %rax
	movl	$0, %edx
	movq	%rcx, %rsi
	movq	%rax, %rdi
	call	_ZNSt7__cxx1112basic_stringIcSt11char_traitsIcESaIcEE9_M_createERmm@PLT
	movq	%rax, %rdx
	movq	-40(%rbp), %rax
	movq	%rdx, %rsi
	movq	%rax, %rdi
	call	_ZNSt7__cxx1112basic_stringIcSt11char_traitsIcESaIcEE7_M_dataEPc@PLT
	movq	-32(%rbp), %rdx
	movq	-40(%rbp), %rax
	movq	%rdx, %rsi
	movq	%rax, %rdi
	call	_ZNSt7__cxx1112basic_stringIcSt11char_traitsIcESaIcEE11_M_capacityEm@PLT
	jmp	.L369
.L368:
	movq	-40(%rbp), %rax
	movq	%rax, -16(%rbp)
	movq	-16(%rbp), %rax
	movq	%rax, %rdi
	call	_ZNSt7__cxx1112basic_stringIcSt11char_traitsIcESaIcEE13_M_local_dataEv@PLT
	nop
.L369:
	movq	-40(%rbp), %rdx
	leaq	-24(%rbp), %rax
	movq	%rdx, %rsi
	movq	%rax, %rdi
	call	_ZZNSt7__cxx1112basic_stringIcSt11char_traitsIcESaIcEE12_M_constructIPKcEEvT_S8_St20forward_iterator_tagEN6_GuardC1EPS4_
	movq	-40(%rbp), %rax
	movq	%rax, %rdi
	call	_ZNKSt7__cxx1112basic_stringIcSt11char_traitsIcESaIcEE7_M_dataEv@PLT
	movq	%rax, %rcx
	movq	-56(%rbp), %rdx
	movq	-48(%rbp), %rax
	movq	%rax, %rsi
	movq	%rcx, %rdi
	call	_ZNSt7__cxx1112basic_stringIcSt11char_traitsIcESaIcEE13_S_copy_charsEPcPKcS7_@PLT
	movq	$0, -24(%rbp)
	movq	-32(%rbp), %rdx
	movq	-40(%rbp), %rax
	movq	%rdx, %rsi
	movq	%rax, %rdi
	call	_ZNSt7__cxx1112basic_stringIcSt11char_traitsIcESaIcEE13_M_set_lengthEm@PLT
	leaq	-24(%rbp), %rax
	movq	%rax, %rdi
	call	_ZZNSt7__cxx1112basic_stringIcSt11char_traitsIcESaIcEE12_M_constructIPKcEEvT_S8_St20forward_iterator_tagEN6_GuardD1Ev
	movq	-8(%rbp), %rax
	subq	%fs:40, %rax
	je	.L371
	call	__stack_chk_fail@PLT
.L371:
	leave
	.cfi_def_cfa 7, 8
	ret
	.cfi_endproc
.LFE4723:
	.size	_ZNSt7__cxx1112basic_stringIcSt11char_traitsIcESaIcEE12_M_constructIPKcEEvT_S8_St20forward_iterator_tag, .-_ZNSt7__cxx1112basic_stringIcSt11char_traitsIcESaIcEE12_M_constructIPKcEEvT_S8_St20forward_iterator_tag
	.section	.text._ZSt3minImERKT_S2_S2_,"axG",@progbits,_ZSt3minImERKT_S2_S2_,comdat
	.weak	_ZSt3minImERKT_S2_S2_
	.type	_ZSt3minImERKT_S2_S2_, @function
_ZSt3minImERKT_S2_S2_:
.LFB4852:
	.cfi_startproc
	endbr64
	pushq	%rbp
	.cfi_def_cfa_offset 16
	.cfi_offset 6, -16
	movq	%rsp, %rbp
	.cfi_def_cfa_register 6
	movq	%rdi, -8(%rbp)
	movq	%rsi, -16(%rbp)
	movq	-16(%rbp), %rax
	movq	(%rax), %rdx
	movq	-8(%rbp), %rax
	movq	(%rax), %rax
	cmpq	%rax, %rdx
	jnb	.L373
	movq	-16(%rbp), %rax
	jmp	.L374
.L373:
	movq	-8(%rbp), %rax
.L374:
	popq	%rbp
	.cfi_def_cfa 7, 8
	ret
	.cfi_endproc
.LFE4852:
	.size	_ZSt3minImERKT_S2_S2_, .-_ZSt3minImERKT_S2_S2_
	.section	.text._ZNSt8_Rb_treeI4nodeSt4pairIKS0_St6vectorIS0_SaIS0_EEESt10_Select1stIS6_ESt4lessIS0_ESaIS6_EE13_Rb_tree_implISA_Lb1EEC2ERKSE_,"axG",@progbits,_ZNSt8_Rb_treeI4nodeSt4pairIKS0_St6vectorIS0_SaIS0_EEESt10_Select1stIS6_ESt4lessIS0_ESaIS6_EE13_Rb_tree_implISA_Lb1EEC5ERKSE_,comdat
	.align 2
	.weak	_ZNSt8_Rb_treeI4nodeSt4pairIKS0_St6vectorIS0_SaIS0_EEESt10_Select1stIS6_ESt4lessIS0_ESaIS6_EE13_Rb_tree_implISA_Lb1EEC2ERKSE_
	.type	_ZNSt8_Rb_treeI4nodeSt4pairIKS0_St6vectorIS0_SaIS0_EEESt10_Select1stIS6_ESt4lessIS0_ESaIS6_EE13_Rb_tree_implISA_Lb1EEC2ERKSE_, @function
_ZNSt8_Rb_treeI4nodeSt4pairIKS0_St6vectorIS0_SaIS0_EEESt10_Select1stIS6_ESt4lessIS0_ESaIS6_EE13_Rb_tree_implISA_Lb1EEC2ERKSE_:
.LFB4854:
	.cfi_startproc
	endbr64
	pushq	%rbp
	.cfi_def_cfa_offset 16
	.cfi_offset 6, -16
	movq	%rsp, %rbp
	.cfi_def_cfa_register 6
	subq	$32, %rsp
	movq	%rdi, -24(%rbp)
	movq	%rsi, -32(%rbp)
	movq	%fs:40, %rax
	movq	%rax, -8(%rbp)
	xorl	%eax, %eax
	leaq	-9(%rbp), %rax
	movq	-32(%rbp), %rdx
	movq	%rdx, %rsi
	movq	%rax, %rdi
	call	_ZN9__gnu_cxx14__alloc_traitsISaISt13_Rb_tree_nodeISt4pairIK4nodeSt6vectorIS3_SaIS3_EEEEES9_E17_S_select_on_copyERKSA_
	leaq	-9(%rbp), %rdx
	movq	-24(%rbp), %rax
	movq	%rdx, %rsi
	movq	%rax, %rdi
	call	_ZNSaISt13_Rb_tree_nodeISt4pairIK4nodeSt6vectorIS1_SaIS1_EEEEEC2ERKS8_
	leaq	-9(%rbp), %rax
	movq	%rax, %rdi
	call	_ZNSaISt13_Rb_tree_nodeISt4pairIK4nodeSt6vectorIS1_SaIS1_EEEEED1Ev
	movq	-24(%rbp), %rax
	movq	-32(%rbp), %rdx
	movq	%rdx, %rsi
	movq	%rax, %rdi
	call	_ZNSt20_Rb_tree_key_compareISt4lessI4nodeEEC2ERKS2_
	movq	-24(%rbp), %rax
	addq	$8, %rax
	movq	%rax, %rdi
	call	_ZNSt15_Rb_tree_headerC2Ev
	nop
	movq	-8(%rbp), %rax
	subq	%fs:40, %rax
	je	.L376
	call	__stack_chk_fail@PLT
.L376:
	leave
	.cfi_def_cfa 7, 8
	ret
	.cfi_endproc
.LFE4854:
	.size	_ZNSt8_Rb_treeI4nodeSt4pairIKS0_St6vectorIS0_SaIS0_EEESt10_Select1stIS6_ESt4lessIS0_ESaIS6_EE13_Rb_tree_implISA_Lb1EEC2ERKSE_, .-_ZNSt8_Rb_treeI4nodeSt4pairIKS0_St6vectorIS0_SaIS0_EEESt10_Select1stIS6_ESt4lessIS0_ESaIS6_EE13_Rb_tree_implISA_Lb1EEC2ERKSE_
	.weak	_ZNSt8_Rb_treeI4nodeSt4pairIKS0_St6vectorIS0_SaIS0_EEESt10_Select1stIS6_ESt4lessIS0_ESaIS6_EE13_Rb_tree_implISA_Lb1EEC1ERKSE_
	.set	_ZNSt8_Rb_treeI4nodeSt4pairIKS0_St6vectorIS0_SaIS0_EEESt10_Select1stIS6_ESt4lessIS0_ESaIS6_EE13_Rb_tree_implISA_Lb1EEC1ERKSE_,_ZNSt8_Rb_treeI4nodeSt4pairIKS0_St6vectorIS0_SaIS0_EEESt10_Select1stIS6_ESt4lessIS0_ESaIS6_EE13_Rb_tree_implISA_Lb1EEC2ERKSE_
	.section	.text._ZNKSt8_Rb_treeI4nodeSt4pairIKS0_St6vectorIS0_SaIS0_EEESt10_Select1stIS6_ESt4lessIS0_ESaIS6_EE7_M_rootEv,"axG",@progbits,_ZNKSt8_Rb_treeI4nodeSt4pairIKS0_St6vectorIS0_SaIS0_EEESt10_Select1stIS6_ESt4lessIS0_ESaIS6_EE7_M_rootEv,comdat
	.align 2
	.weak	_ZNKSt8_Rb_treeI4nodeSt4pairIKS0_St6vectorIS0_SaIS0_EEESt10_Select1stIS6_ESt4lessIS0_ESaIS6_EE7_M_rootEv
	.type	_ZNKSt8_Rb_treeI4nodeSt4pairIKS0_St6vectorIS0_SaIS0_EEESt10_Select1stIS6_ESt4lessIS0_ESaIS6_EE7_M_rootEv, @function
_ZNKSt8_Rb_treeI4nodeSt4pairIKS0_St6vectorIS0_SaIS0_EEESt10_Select1stIS6_ESt4lessIS0_ESaIS6_EE7_M_rootEv:
.LFB4856:
	.cfi_startproc
	endbr64
	pushq	%rbp
	.cfi_def_cfa_offset 16
	.cfi_offset 6, -16
	movq	%rsp, %rbp
	.cfi_def_cfa_register 6
	movq	%rdi, -8(%rbp)
	movq	-8(%rbp), %rax
	movq	16(%rax), %rax
	popq	%rbp
	.cfi_def_cfa 7, 8
	ret
	.cfi_endproc
.LFE4856:
	.size	_ZNKSt8_Rb_treeI4nodeSt4pairIKS0_St6vectorIS0_SaIS0_EEESt10_Select1stIS6_ESt4lessIS0_ESaIS6_EE7_M_rootEv, .-_ZNKSt8_Rb_treeI4nodeSt4pairIKS0_St6vectorIS0_SaIS0_EEESt10_Select1stIS6_ESt4lessIS0_ESaIS6_EE7_M_rootEv
	.section	.text._ZNSt8_Rb_treeI4nodeSt4pairIKS0_St6vectorIS0_SaIS0_EEESt10_Select1stIS6_ESt4lessIS0_ESaIS6_EE7_M_rootEv,"axG",@progbits,_ZNSt8_Rb_treeI4nodeSt4pairIKS0_St6vectorIS0_SaIS0_EEESt10_Select1stIS6_ESt4lessIS0_ESaIS6_EE7_M_rootEv,comdat
	.align 2
	.weak	_ZNSt8_Rb_treeI4nodeSt4pairIKS0_St6vectorIS0_SaIS0_EEESt10_Select1stIS6_ESt4lessIS0_ESaIS6_EE7_M_rootEv
	.type	_ZNSt8_Rb_treeI4nodeSt4pairIKS0_St6vectorIS0_SaIS0_EEESt10_Select1stIS6_ESt4lessIS0_ESaIS6_EE7_M_rootEv, @function
_ZNSt8_Rb_treeI4nodeSt4pairIKS0_St6vectorIS0_SaIS0_EEESt10_Select1stIS6_ESt4lessIS0_ESaIS6_EE7_M_rootEv:
.LFB4857:
	.cfi_startproc
	endbr64
	pushq	%rbp
	.cfi_def_cfa_offset 16
	.cfi_offset 6, -16
	movq	%rsp, %rbp
	.cfi_def_cfa_register 6
	movq	%rdi, -8(%rbp)
	movq	-8(%rbp), %rax
	addq	$16, %rax
	popq	%rbp
	.cfi_def_cfa 7, 8
	ret
	.cfi_endproc
.LFE4857:
	.size	_ZNSt8_Rb_treeI4nodeSt4pairIKS0_St6vectorIS0_SaIS0_EEESt10_Select1stIS6_ESt4lessIS0_ESaIS6_EE7_M_rootEv, .-_ZNSt8_Rb_treeI4nodeSt4pairIKS0_St6vectorIS0_SaIS0_EEESt10_Select1stIS6_ESt4lessIS0_ESaIS6_EE7_M_rootEv
	.section	.text._ZNSt8_Rb_treeI4nodeSt4pairIKS0_St6vectorIS0_SaIS0_EEESt10_Select1stIS6_ESt4lessIS0_ESaIS6_EE7_M_copyERKSC_,"axG",@progbits,_ZNSt8_Rb_treeI4nodeSt4pairIKS0_St6vectorIS0_SaIS0_EEESt10_Select1stIS6_ESt4lessIS0_ESaIS6_EE7_M_copyERKSC_,comdat
	.align 2
	.weak	_ZNSt8_Rb_treeI4nodeSt4pairIKS0_St6vectorIS0_SaIS0_EEESt10_Select1stIS6_ESt4lessIS0_ESaIS6_EE7_M_copyERKSC_
	.type	_ZNSt8_Rb_treeI4nodeSt4pairIKS0_St6vectorIS0_SaIS0_EEESt10_Select1stIS6_ESt4lessIS0_ESaIS6_EE7_M_copyERKSC_, @function
_ZNSt8_Rb_treeI4nodeSt4pairIKS0_St6vectorIS0_SaIS0_EEESt10_Select1stIS6_ESt4lessIS0_ESaIS6_EE7_M_copyERKSC_:
.LFB4858:
	.cfi_startproc
	endbr64
	pushq	%rbp
	.cfi_def_cfa_offset 16
	.cfi_offset 6, -16
	movq	%rsp, %rbp
	.cfi_def_cfa_register 6
	subq	$32, %rsp
	movq	%rdi, -24(%rbp)
	movq	%rsi, -32(%rbp)
	movq	%fs:40, %rax
	movq	%rax, -8(%rbp)
	xorl	%eax, %eax
	movq	-24(%rbp), %rdx
	leaq	-16(%rbp), %rax
	movq	%rdx, %rsi
	movq	%rax, %rdi
	call	_ZNSt8_Rb_treeI4nodeSt4pairIKS0_St6vectorIS0_SaIS0_EEESt10_Select1stIS6_ESt4lessIS0_ESaIS6_EE11_Alloc_nodeC1ERSC_
	leaq	-16(%rbp), %rdx
	movq	-32(%rbp), %rcx
	movq	-24(%rbp), %rax
	movq	%rcx, %rsi
	movq	%rax, %rdi
	call	_ZNSt8_Rb_treeI4nodeSt4pairIKS0_St6vectorIS0_SaIS0_EEESt10_Select1stIS6_ESt4lessIS0_ESaIS6_EE7_M_copyILb0ENSC_11_Alloc_nodeEEEPSt13_Rb_tree_nodeIS6_ERKSC_RT0_
	movq	-8(%rbp), %rdx
	subq	%fs:40, %rdx
	je	.L383
	call	__stack_chk_fail@PLT
.L383:
	leave
	.cfi_def_cfa 7, 8
	ret
	.cfi_endproc
.LFE4858:
	.size	_ZNSt8_Rb_treeI4nodeSt4pairIKS0_St6vectorIS0_SaIS0_EEESt10_Select1stIS6_ESt4lessIS0_ESaIS6_EE7_M_copyERKSC_, .-_ZNSt8_Rb_treeI4nodeSt4pairIKS0_St6vectorIS0_SaIS0_EEESt10_Select1stIS6_ESt4lessIS0_ESaIS6_EE7_M_copyERKSC_
	.section	.text._ZNSt8_Rb_treeI4nodeSt4pairIKS0_St6vectorIS0_SaIS0_EEESt10_Select1stIS6_ESt4lessIS0_ESaIS6_EE8_M_eraseEPSt13_Rb_tree_nodeIS6_E,"axG",@progbits,_ZNSt8_Rb_treeI4nodeSt4pairIKS0_St6vectorIS0_SaIS0_EEESt10_Select1stIS6_ESt4lessIS0_ESaIS6_EE8_M_eraseEPSt13_Rb_tree_nodeIS6_E,comdat
	.align 2
	.weak	_ZNSt8_Rb_treeI4nodeSt4pairIKS0_St6vectorIS0_SaIS0_EEESt10_Select1stIS6_ESt4lessIS0_ESaIS6_EE8_M_eraseEPSt13_Rb_tree_nodeIS6_E
	.type	_ZNSt8_Rb_treeI4nodeSt4pairIKS0_St6vectorIS0_SaIS0_EEESt10_Select1stIS6_ESt4lessIS0_ESaIS6_EE8_M_eraseEPSt13_Rb_tree_nodeIS6_E, @function
_ZNSt8_Rb_treeI4nodeSt4pairIKS0_St6vectorIS0_SaIS0_EEESt10_Select1stIS6_ESt4lessIS0_ESaIS6_EE8_M_eraseEPSt13_Rb_tree_nodeIS6_E:
.LFB4859:
	.cfi_startproc
	endbr64
	pushq	%rbp
	.cfi_def_cfa_offset 16
	.cfi_offset 6, -16
	movq	%rsp, %rbp
	.cfi_def_cfa_register 6
	subq	$32, %rsp
	movq	%rdi, -24(%rbp)
	movq	%rsi, -32(%rbp)
	jmp	.L385
.L386:
	movq	-32(%rbp), %rax
	movq	%rax, %rdi
	call	_ZNSt8_Rb_treeI4nodeSt4pairIKS0_St6vectorIS0_SaIS0_EEESt10_Select1stIS6_ESt4lessIS0_ESaIS6_EE8_S_rightEPSt18_Rb_tree_node_base
	movq	%rax, %rdx
	movq	-24(%rbp), %rax
	movq	%rdx, %rsi
	movq	%rax, %rdi
	call	_ZNSt8_Rb_treeI4nodeSt4pairIKS0_St6vectorIS0_SaIS0_EEESt10_Select1stIS6_ESt4lessIS0_ESaIS6_EE8_M_eraseEPSt13_Rb_tree_nodeIS6_E
	movq	-32(%rbp), %rax
	movq	%rax, %rdi
	call	_ZNSt8_Rb_treeI4nodeSt4pairIKS0_St6vectorIS0_SaIS0_EEESt10_Select1stIS6_ESt4lessIS0_ESaIS6_EE7_S_leftEPSt18_Rb_tree_node_base
	movq	%rax, -8(%rbp)
	movq	-32(%rbp), %rdx
	movq	-24(%rbp), %rax
	movq	%rdx, %rsi
	movq	%rax, %rdi
	call	_ZNSt8_Rb_treeI4nodeSt4pairIKS0_St6vectorIS0_SaIS0_EEESt10_Select1stIS6_ESt4lessIS0_ESaIS6_EE12_M_drop_nodeEPSt13_Rb_tree_nodeIS6_E
	movq	-8(%rbp), %rax
	movq	%rax, -32(%rbp)
.L385:
	cmpq	$0, -32(%rbp)
	jne	.L386
	nop
	nop
	leave
	.cfi_def_cfa 7, 8
	ret
	.cfi_endproc
.LFE4859:
	.size	_ZNSt8_Rb_treeI4nodeSt4pairIKS0_St6vectorIS0_SaIS0_EEESt10_Select1stIS6_ESt4lessIS0_ESaIS6_EE8_M_eraseEPSt13_Rb_tree_nodeIS6_E, .-_ZNSt8_Rb_treeI4nodeSt4pairIKS0_St6vectorIS0_SaIS0_EEESt10_Select1stIS6_ESt4lessIS0_ESaIS6_EE8_M_eraseEPSt13_Rb_tree_nodeIS6_E
	.section	.text._ZNSt8_Rb_treeI4nodeSt4pairIKS0_St6vectorIS0_SaIS0_EEESt10_Select1stIS6_ESt4lessIS0_ESaIS6_EE8_M_beginEv,"axG",@progbits,_ZNSt8_Rb_treeI4nodeSt4pairIKS0_St6vectorIS0_SaIS0_EEESt10_Select1stIS6_ESt4lessIS0_ESaIS6_EE8_M_beginEv,comdat
	.align 2
	.weak	_ZNSt8_Rb_treeI4nodeSt4pairIKS0_St6vectorIS0_SaIS0_EEESt10_Select1stIS6_ESt4lessIS0_ESaIS6_EE8_M_beginEv
	.type	_ZNSt8_Rb_treeI4nodeSt4pairIKS0_St6vectorIS0_SaIS0_EEESt10_Select1stIS6_ESt4lessIS0_ESaIS6_EE8_M_beginEv, @function
_ZNSt8_Rb_treeI4nodeSt4pairIKS0_St6vectorIS0_SaIS0_EEESt10_Select1stIS6_ESt4lessIS0_ESaIS6_EE8_M_beginEv:
.LFB4860:
	.cfi_startproc
	endbr64
	pushq	%rbp
	.cfi_def_cfa_offset 16
	.cfi_offset 6, -16
	movq	%rsp, %rbp
	.cfi_def_cfa_register 6
	subq	$16, %rsp
	movq	%rdi, -8(%rbp)
	movq	-8(%rbp), %rax
	movq	%rax, %rdi
	call	_ZNKSt8_Rb_treeI4nodeSt4pairIKS0_St6vectorIS0_SaIS0_EEESt10_Select1stIS6_ESt4lessIS0_ESaIS6_EE9_M_mbeginEv
	leave
	.cfi_def_cfa 7, 8
	ret
	.cfi_endproc
.LFE4860:
	.size	_ZNSt8_Rb_treeI4nodeSt4pairIKS0_St6vectorIS0_SaIS0_EEESt10_Select1stIS6_ESt4lessIS0_ESaIS6_EE8_M_beginEv, .-_ZNSt8_Rb_treeI4nodeSt4pairIKS0_St6vectorIS0_SaIS0_EEESt10_Select1stIS6_ESt4lessIS0_ESaIS6_EE8_M_beginEv
	.section	.text._ZNKSt8_Rb_treeI4nodeSt4pairIKS0_St6vectorIS0_SaIS0_EEESt10_Select1stIS6_ESt4lessIS0_ESaIS6_EE4sizeEv,"axG",@progbits,_ZNKSt8_Rb_treeI4nodeSt4pairIKS0_St6vectorIS0_SaIS0_EEESt10_Select1stIS6_ESt4lessIS0_ESaIS6_EE4sizeEv,comdat
	.align 2
	.weak	_ZNKSt8_Rb_treeI4nodeSt4pairIKS0_St6vectorIS0_SaIS0_EEESt10_Select1stIS6_ESt4lessIS0_ESaIS6_EE4sizeEv
	.type	_ZNKSt8_Rb_treeI4nodeSt4pairIKS0_St6vectorIS0_SaIS0_EEESt10_Select1stIS6_ESt4lessIS0_ESaIS6_EE4sizeEv, @function
_ZNKSt8_Rb_treeI4nodeSt4pairIKS0_St6vectorIS0_SaIS0_EEESt10_Select1stIS6_ESt4lessIS0_ESaIS6_EE4sizeEv:
.LFB4861:
	.cfi_startproc
	endbr64
	pushq	%rbp
	.cfi_def_cfa_offset 16
	.cfi_offset 6, -16
	movq	%rsp, %rbp
	.cfi_def_cfa_register 6
	movq	%rdi, -8(%rbp)
	movq	-8(%rbp), %rax
	movq	40(%rax), %rax
	popq	%rbp
	.cfi_def_cfa 7, 8
	ret
	.cfi_endproc
.LFE4861:
	.size	_ZNKSt8_Rb_treeI4nodeSt4pairIKS0_St6vectorIS0_SaIS0_EEESt10_Select1stIS6_ESt4lessIS0_ESaIS6_EE4sizeEv, .-_ZNKSt8_Rb_treeI4nodeSt4pairIKS0_St6vectorIS0_SaIS0_EEESt10_Select1stIS6_ESt4lessIS0_ESaIS6_EE4sizeEv
	.section	.text._ZSt7advanceISt17_Rb_tree_iteratorISt4pairIK4nodeSt6vectorIS2_SaIS2_EEEElEvRT_T0_,"axG",@progbits,_ZSt7advanceISt17_Rb_tree_iteratorISt4pairIK4nodeSt6vectorIS2_SaIS2_EEEElEvRT_T0_,comdat
	.weak	_ZSt7advanceISt17_Rb_tree_iteratorISt4pairIK4nodeSt6vectorIS2_SaIS2_EEEElEvRT_T0_
	.type	_ZSt7advanceISt17_Rb_tree_iteratorISt4pairIK4nodeSt6vectorIS2_SaIS2_EEEElEvRT_T0_, @function
_ZSt7advanceISt17_Rb_tree_iteratorISt4pairIK4nodeSt6vectorIS2_SaIS2_EEEElEvRT_T0_:
.LFB4862:
	.cfi_startproc
	endbr64
	pushq	%rbp
	.cfi_def_cfa_offset 16
	.cfi_offset 6, -16
	movq	%rsp, %rbp
	.cfi_def_cfa_register 6
	subq	$32, %rsp
	movq	%rdi, -24(%rbp)
	movq	%rsi, -32(%rbp)
	movq	-32(%rbp), %rax
	movq	%rax, -8(%rbp)
	movq	-24(%rbp), %rax
	movq	%rax, %rdi
	call	_ZSt19__iterator_categoryISt17_Rb_tree_iteratorISt4pairIK4nodeSt6vectorIS2_SaIS2_EEEEENSt15iterator_traitsIT_E17iterator_categoryERKSA_
	movq	-8(%rbp), %rdx
	movq	-24(%rbp), %rax
	movq	%rdx, %rsi
	movq	%rax, %rdi
	call	_ZSt9__advanceISt17_Rb_tree_iteratorISt4pairIK4nodeSt6vectorIS2_SaIS2_EEEElEvRT_T0_St26bidirectional_iterator_tag
	nop
	leave
	.cfi_def_cfa 7, 8
	ret
	.cfi_endproc
.LFE4862:
	.size	_ZSt7advanceISt17_Rb_tree_iteratorISt4pairIK4nodeSt6vectorIS2_SaIS2_EEEElEvRT_T0_, .-_ZSt7advanceISt17_Rb_tree_iteratorISt4pairIK4nodeSt6vectorIS2_SaIS2_EEEElEvRT_T0_
	.section	.text._ZNSt13_Rb_tree_nodeISt4pairIK4nodeSt6vectorIS1_SaIS1_EEEE9_M_valptrEv,"axG",@progbits,_ZNSt13_Rb_tree_nodeISt4pairIK4nodeSt6vectorIS1_SaIS1_EEEE9_M_valptrEv,comdat
	.align 2
	.weak	_ZNSt13_Rb_tree_nodeISt4pairIK4nodeSt6vectorIS1_SaIS1_EEEE9_M_valptrEv
	.type	_ZNSt13_Rb_tree_nodeISt4pairIK4nodeSt6vectorIS1_SaIS1_EEEE9_M_valptrEv, @function
_ZNSt13_Rb_tree_nodeISt4pairIK4nodeSt6vectorIS1_SaIS1_EEEE9_M_valptrEv:
.LFB4863:
	.cfi_startproc
	endbr64
	pushq	%rbp
	.cfi_def_cfa_offset 16
	.cfi_offset 6, -16
	movq	%rsp, %rbp
	.cfi_def_cfa_register 6
	subq	$16, %rsp
	movq	%rdi, -8(%rbp)
	movq	-8(%rbp), %rax
	addq	$32, %rax
	movq	%rax, %rdi
	call	_ZN9__gnu_cxx16__aligned_membufISt4pairIK4nodeSt6vectorIS2_SaIS2_EEEE6_M_ptrEv
	leave
	.cfi_def_cfa 7, 8
	ret
	.cfi_endproc
.LFE4863:
	.size	_ZNSt13_Rb_tree_nodeISt4pairIK4nodeSt6vectorIS1_SaIS1_EEEE9_M_valptrEv, .-_ZNSt13_Rb_tree_nodeISt4pairIK4nodeSt6vectorIS1_SaIS1_EEEE9_M_valptrEv
	.section	.text._ZN9__gnu_cxx17__normal_iteratorIP4nodeSt6vectorIS1_SaIS1_EEEC2ERKS2_,"axG",@progbits,_ZN9__gnu_cxx17__normal_iteratorIP4nodeSt6vectorIS1_SaIS1_EEEC5ERKS2_,comdat
	.align 2
	.weak	_ZN9__gnu_cxx17__normal_iteratorIP4nodeSt6vectorIS1_SaIS1_EEEC2ERKS2_
	.type	_ZN9__gnu_cxx17__normal_iteratorIP4nodeSt6vectorIS1_SaIS1_EEEC2ERKS2_, @function
_ZN9__gnu_cxx17__normal_iteratorIP4nodeSt6vectorIS1_SaIS1_EEEC2ERKS2_:
.LFB4865:
	.cfi_startproc
	endbr64
	pushq	%rbp
	.cfi_def_cfa_offset 16
	.cfi_offset 6, -16
	movq	%rsp, %rbp
	.cfi_def_cfa_register 6
	movq	%rdi, -8(%rbp)
	movq	%rsi, -16(%rbp)
	movq	-16(%rbp), %rax
	movq	(%rax), %rdx
	movq	-8(%rbp), %rax
	movq	%rdx, (%rax)
	nop
	popq	%rbp
	.cfi_def_cfa 7, 8
	ret
	.cfi_endproc
.LFE4865:
	.size	_ZN9__gnu_cxx17__normal_iteratorIP4nodeSt6vectorIS1_SaIS1_EEEC2ERKS2_, .-_ZN9__gnu_cxx17__normal_iteratorIP4nodeSt6vectorIS1_SaIS1_EEEC2ERKS2_
	.weak	_ZN9__gnu_cxx17__normal_iteratorIP4nodeSt6vectorIS1_SaIS1_EEEC1ERKS2_
	.set	_ZN9__gnu_cxx17__normal_iteratorIP4nodeSt6vectorIS1_SaIS1_EEEC1ERKS2_,_ZN9__gnu_cxx17__normal_iteratorIP4nodeSt6vectorIS1_SaIS1_EEEC2ERKS2_
	.section	.text._ZNKSt6vectorI4nodeSaIS0_EE4sizeEv,"axG",@progbits,_ZNKSt6vectorI4nodeSaIS0_EE4sizeEv,comdat
	.align 2
	.weak	_ZNKSt6vectorI4nodeSaIS0_EE4sizeEv
	.type	_ZNKSt6vectorI4nodeSaIS0_EE4sizeEv, @function
_ZNKSt6vectorI4nodeSaIS0_EE4sizeEv:
.LFB4867:
	.cfi_startproc
	endbr64
	pushq	%rbp
	.cfi_def_cfa_offset 16
	.cfi_offset 6, -16
	movq	%rsp, %rbp
	.cfi_def_cfa_register 6
	movq	%rdi, -8(%rbp)
	movq	-8(%rbp), %rax
	movq	8(%rax), %rdx
	movq	-8(%rbp), %rax
	movq	(%rax), %rax
	subq	%rax, %rdx
	sarq	$3, %rdx
	movabsq	$-3689348814741910323, %rax
	imulq	%rdx, %rax
	popq	%rbp
	.cfi_def_cfa 7, 8
	ret
	.cfi_endproc
.LFE4867:
	.size	_ZNKSt6vectorI4nodeSaIS0_EE4sizeEv, .-_ZNKSt6vectorI4nodeSaIS0_EE4sizeEv
	.section	.text._ZNSt3mapI4nodeSt6vectorIS0_SaIS0_EESt4lessIS0_ESaISt4pairIKS0_S3_EEE11lower_boundERS7_,"axG",@progbits,_ZNSt3mapI4nodeSt6vectorIS0_SaIS0_EESt4lessIS0_ESaISt4pairIKS0_S3_EEE11lower_boundERS7_,comdat
	.align 2
	.weak	_ZNSt3mapI4nodeSt6vectorIS0_SaIS0_EESt4lessIS0_ESaISt4pairIKS0_S3_EEE11lower_boundERS7_
	.type	_ZNSt3mapI4nodeSt6vectorIS0_SaIS0_EESt4lessIS0_ESaISt4pairIKS0_S3_EEE11lower_boundERS7_, @function
_ZNSt3mapI4nodeSt6vectorIS0_SaIS0_EESt4lessIS0_ESaISt4pairIKS0_S3_EEE11lower_boundERS7_:
.LFB4877:
	.cfi_startproc
	endbr64
	pushq	%rbp
	.cfi_def_cfa_offset 16
	.cfi_offset 6, -16
	movq	%rsp, %rbp
	.cfi_def_cfa_register 6
	subq	$16, %rsp
	movq	%rdi, -8(%rbp)
	movq	%rsi, -16(%rbp)
	movq	-8(%rbp), %rax
	movq	-16(%rbp), %rdx
	movq	%rdx, %rsi
	movq	%rax, %rdi
	call	_ZNSt8_Rb_treeI4nodeSt4pairIKS0_St6vectorIS0_SaIS0_EEESt10_Select1stIS6_ESt4lessIS0_ESaIS6_EE11lower_boundERS2_
	leave
	.cfi_def_cfa 7, 8
	ret
	.cfi_endproc
.LFE4877:
	.size	_ZNSt3mapI4nodeSt6vectorIS0_SaIS0_EESt4lessIS0_ESaISt4pairIKS0_S3_EEE11lower_boundERS7_, .-_ZNSt3mapI4nodeSt6vectorIS0_SaIS0_EESt4lessIS0_ESaISt4pairIKS0_S3_EEE11lower_boundERS7_
	.section	.text._ZSteqRKSt17_Rb_tree_iteratorISt4pairIK4nodeSt6vectorIS1_SaIS1_EEEES9_,"axG",@progbits,_ZSteqRKSt17_Rb_tree_iteratorISt4pairIK4nodeSt6vectorIS1_SaIS1_EEEES9_,comdat
	.weak	_ZSteqRKSt17_Rb_tree_iteratorISt4pairIK4nodeSt6vectorIS1_SaIS1_EEEES9_
	.type	_ZSteqRKSt17_Rb_tree_iteratorISt4pairIK4nodeSt6vectorIS1_SaIS1_EEEES9_, @function
_ZSteqRKSt17_Rb_tree_iteratorISt4pairIK4nodeSt6vectorIS1_SaIS1_EEEES9_:
.LFB4878:
	.cfi_startproc
	endbr64
	pushq	%rbp
	.cfi_def_cfa_offset 16
	.cfi_offset 6, -16
	movq	%rsp, %rbp
	.cfi_def_cfa_register 6
	movq	%rdi, -8(%rbp)
	movq	%rsi, -16(%rbp)
	movq	-8(%rbp), %rax
	movq	(%rax), %rdx
	movq	-16(%rbp), %rax
	movq	(%rax), %rax
	cmpq	%rax, %rdx
	sete	%al
	popq	%rbp
	.cfi_def_cfa 7, 8
	ret
	.cfi_endproc
.LFE4878:
	.size	_ZSteqRKSt17_Rb_tree_iteratorISt4pairIK4nodeSt6vectorIS1_SaIS1_EEEES9_, .-_ZSteqRKSt17_Rb_tree_iteratorISt4pairIK4nodeSt6vectorIS1_SaIS1_EEEES9_
	.section	.text._ZNKSt3mapI4nodeSt6vectorIS0_SaIS0_EESt4lessIS0_ESaISt4pairIKS0_S3_EEE8key_compEv,"axG",@progbits,_ZNKSt3mapI4nodeSt6vectorIS0_SaIS0_EESt4lessIS0_ESaISt4pairIKS0_S3_EEE8key_compEv,comdat
	.align 2
	.weak	_ZNKSt3mapI4nodeSt6vectorIS0_SaIS0_EESt4lessIS0_ESaISt4pairIKS0_S3_EEE8key_compEv
	.type	_ZNKSt3mapI4nodeSt6vectorIS0_SaIS0_EESt4lessIS0_ESaISt4pairIKS0_S3_EEE8key_compEv, @function
_ZNKSt3mapI4nodeSt6vectorIS0_SaIS0_EESt4lessIS0_ESaISt4pairIKS0_S3_EEE8key_compEv:
.LFB4879:
	.cfi_startproc
	endbr64
	pushq	%rbp
	.cfi_def_cfa_offset 16
	.cfi_offset 6, -16
	movq	%rsp, %rbp
	.cfi_def_cfa_register 6
	subq	$16, %rsp
	movq	%rdi, -8(%rbp)
	movq	-8(%rbp), %rax
	movq	%rax, %rdi
	call	_ZNKSt8_Rb_treeI4nodeSt4pairIKS0_St6vectorIS0_SaIS0_EEESt10_Select1stIS6_ESt4lessIS0_ESaIS6_EE8key_compEv
	nop
	leave
	.cfi_def_cfa 7, 8
	ret
	.cfi_endproc
.LFE4879:
	.size	_ZNKSt3mapI4nodeSt6vectorIS0_SaIS0_EESt4lessIS0_ESaISt4pairIKS0_S3_EEE8key_compEv, .-_ZNKSt3mapI4nodeSt6vectorIS0_SaIS0_EESt4lessIS0_ESaISt4pairIKS0_S3_EEE8key_compEv
	.section	.text._ZNKSt17_Rb_tree_iteratorISt4pairIK4nodeSt6vectorIS1_SaIS1_EEEEdeEv,"axG",@progbits,_ZNKSt17_Rb_tree_iteratorISt4pairIK4nodeSt6vectorIS1_SaIS1_EEEEdeEv,comdat
	.align 2
	.weak	_ZNKSt17_Rb_tree_iteratorISt4pairIK4nodeSt6vectorIS1_SaIS1_EEEEdeEv
	.type	_ZNKSt17_Rb_tree_iteratorISt4pairIK4nodeSt6vectorIS1_SaIS1_EEEEdeEv, @function
_ZNKSt17_Rb_tree_iteratorISt4pairIK4nodeSt6vectorIS1_SaIS1_EEEEdeEv:
.LFB4880:
	.cfi_startproc
	endbr64
	pushq	%rbp
	.cfi_def_cfa_offset 16
	.cfi_offset 6, -16
	movq	%rsp, %rbp
	.cfi_def_cfa_register 6
	subq	$16, %rsp
	movq	%rdi, -8(%rbp)
	movq	-8(%rbp), %rax
	movq	(%rax), %rax
	movq	%rax, %rdi
	call	_ZNSt13_Rb_tree_nodeISt4pairIK4nodeSt6vectorIS1_SaIS1_EEEE9_M_valptrEv
	leave
	.cfi_def_cfa 7, 8
	ret
	.cfi_endproc
.LFE4880:
	.size	_ZNKSt17_Rb_tree_iteratorISt4pairIK4nodeSt6vectorIS1_SaIS1_EEEEdeEv, .-_ZNKSt17_Rb_tree_iteratorISt4pairIK4nodeSt6vectorIS1_SaIS1_EEEEdeEv
	.section	.text._ZNKSt4lessI4nodeEclERKS0_S3_,"axG",@progbits,_ZNKSt4lessI4nodeEclERKS0_S3_,comdat
	.align 2
	.weak	_ZNKSt4lessI4nodeEclERKS0_S3_
	.type	_ZNKSt4lessI4nodeEclERKS0_S3_, @function
_ZNKSt4lessI4nodeEclERKS0_S3_:
.LFB4881:
	.cfi_startproc
	endbr64
	pushq	%rbp
	.cfi_def_cfa_offset 16
	.cfi_offset 6, -16
	movq	%rsp, %rbp
	.cfi_def_cfa_register 6
	subq	$32, %rsp
	movq	%rdi, -8(%rbp)
	movq	%rsi, -16(%rbp)
	movq	%rdx, -24(%rbp)
	movq	-24(%rbp), %rdx
	movq	-16(%rbp), %rax
	movq	%rdx, %rsi
	movq	%rax, %rdi
	call	_ZNK4nodeltERKS_
	leave
	.cfi_def_cfa 7, 8
	ret
	.cfi_endproc
.LFE4881:
	.size	_ZNKSt4lessI4nodeEclERKS0_S3_, .-_ZNKSt4lessI4nodeEclERKS0_S3_
	.section	.text._ZNSt5tupleIJRK4nodeEEC2ILb1ELb1EEES2_,"axG",@progbits,_ZNSt5tupleIJRK4nodeEEC5ILb1ELb1EEES2_,comdat
	.align 2
	.weak	_ZNSt5tupleIJRK4nodeEEC2ILb1ELb1EEES2_
	.type	_ZNSt5tupleIJRK4nodeEEC2ILb1ELb1EEES2_, @function
_ZNSt5tupleIJRK4nodeEEC2ILb1ELb1EEES2_:
.LFB4883:
	.cfi_startproc
	.cfi_personality 0x9b,DW.ref.__gxx_personality_v0
	.cfi_lsda 0x1b,.LLSDA4883
	endbr64
	pushq	%rbp
	.cfi_def_cfa_offset 16
	.cfi_offset 6, -16
	movq	%rsp, %rbp
	.cfi_def_cfa_register 6
	subq	$16, %rsp
	movq	%rdi, -8(%rbp)
	movq	%rsi, -16(%rbp)
	movq	-8(%rbp), %rax
	movq	-16(%rbp), %rdx
	movq	%rdx, %rsi
	movq	%rax, %rdi
	call	_ZNSt11_Tuple_implILm0EJRK4nodeEEC2ES2_
	nop
	leave
	.cfi_def_cfa 7, 8
	ret
	.cfi_endproc
.LFE4883:
	.section	.gcc_except_table
.LLSDA4883:
	.byte	0xff
	.byte	0xff
	.byte	0x1
	.uleb128 .LLSDACSE4883-.LLSDACSB4883
.LLSDACSB4883:
.LLSDACSE4883:
	.section	.text._ZNSt5tupleIJRK4nodeEEC2ILb1ELb1EEES2_,"axG",@progbits,_ZNSt5tupleIJRK4nodeEEC5ILb1ELb1EEES2_,comdat
	.size	_ZNSt5tupleIJRK4nodeEEC2ILb1ELb1EEES2_, .-_ZNSt5tupleIJRK4nodeEEC2ILb1ELb1EEES2_
	.weak	_ZNSt5tupleIJRK4nodeEEC1ILb1ELb1EEES2_
	.set	_ZNSt5tupleIJRK4nodeEEC1ILb1ELb1EEES2_,_ZNSt5tupleIJRK4nodeEEC2ILb1ELb1EEES2_
	.section	.text._ZNSt23_Rb_tree_const_iteratorISt4pairIK4nodeSt6vectorIS1_SaIS1_EEEEC2ERKSt17_Rb_tree_iteratorIS6_E,"axG",@progbits,_ZNSt23_Rb_tree_const_iteratorISt4pairIK4nodeSt6vectorIS1_SaIS1_EEEEC5ERKSt17_Rb_tree_iteratorIS6_E,comdat
	.align 2
	.weak	_ZNSt23_Rb_tree_const_iteratorISt4pairIK4nodeSt6vectorIS1_SaIS1_EEEEC2ERKSt17_Rb_tree_iteratorIS6_E
	.type	_ZNSt23_Rb_tree_const_iteratorISt4pairIK4nodeSt6vectorIS1_SaIS1_EEEEC2ERKSt17_Rb_tree_iteratorIS6_E, @function
_ZNSt23_Rb_tree_const_iteratorISt4pairIK4nodeSt6vectorIS1_SaIS1_EEEEC2ERKSt17_Rb_tree_iteratorIS6_E:
.LFB4886:
	.cfi_startproc
	endbr64
	pushq	%rbp
	.cfi_def_cfa_offset 16
	.cfi_offset 6, -16
	movq	%rsp, %rbp
	.cfi_def_cfa_register 6
	movq	%rdi, -8(%rbp)
	movq	%rsi, -16(%rbp)
	movq	-16(%rbp), %rax
	movq	(%rax), %rdx
	movq	-8(%rbp), %rax
	movq	%rdx, (%rax)
	nop
	popq	%rbp
	.cfi_def_cfa 7, 8
	ret
	.cfi_endproc
.LFE4886:
	.size	_ZNSt23_Rb_tree_const_iteratorISt4pairIK4nodeSt6vectorIS1_SaIS1_EEEEC2ERKSt17_Rb_tree_iteratorIS6_E, .-_ZNSt23_Rb_tree_const_iteratorISt4pairIK4nodeSt6vectorIS1_SaIS1_EEEEC2ERKSt17_Rb_tree_iteratorIS6_E
	.weak	_ZNSt23_Rb_tree_const_iteratorISt4pairIK4nodeSt6vectorIS1_SaIS1_EEEEC1ERKSt17_Rb_tree_iteratorIS6_E
	.set	_ZNSt23_Rb_tree_const_iteratorISt4pairIK4nodeSt6vectorIS1_SaIS1_EEEEC1ERKSt17_Rb_tree_iteratorIS6_E,_ZNSt23_Rb_tree_const_iteratorISt4pairIK4nodeSt6vectorIS1_SaIS1_EEEEC2ERKSt17_Rb_tree_iteratorIS6_E
	.section	.text._ZNSt8_Rb_treeI4nodeSt4pairIKS0_St6vectorIS0_SaIS0_EEESt10_Select1stIS6_ESt4lessIS0_ESaIS6_EE22_M_emplace_hint_uniqueIJRKSt21piecewise_construct_tSt5tupleIJRS2_EESH_IJEEEEESt17_Rb_tree_iteratorIS6_ESt23_Rb_tree_const_iteratorIS6_EDpOT_,"axG",@progbits,_ZNSt8_Rb_treeI4nodeSt4pairIKS0_St6vectorIS0_SaIS0_EEESt10_Select1stIS6_ESt4lessIS0_ESaIS6_EE22_M_emplace_hint_uniqueIJRKSt21piecewise_construct_tSt5tupleIJRS2_EESH_IJEEEEESt17_Rb_tree_iteratorIS6_ESt23_Rb_tree_const_iteratorIS6_EDpOT_,comdat
	.align 2
	.weak	_ZNSt8_Rb_treeI4nodeSt4pairIKS0_St6vectorIS0_SaIS0_EEESt10_Select1stIS6_ESt4lessIS0_ESaIS6_EE22_M_emplace_hint_uniqueIJRKSt21piecewise_construct_tSt5tupleIJRS2_EESH_IJEEEEESt17_Rb_tree_iteratorIS6_ESt23_Rb_tree_const_iteratorIS6_EDpOT_
	.type	_ZNSt8_Rb_treeI4nodeSt4pairIKS0_St6vectorIS0_SaIS0_EEESt10_Select1stIS6_ESt4lessIS0_ESaIS6_EE22_M_emplace_hint_uniqueIJRKSt21piecewise_construct_tSt5tupleIJRS2_EESH_IJEEEEESt17_Rb_tree_iteratorIS6_ESt23_Rb_tree_const_iteratorIS6_EDpOT_, @function
_ZNSt8_Rb_treeI4nodeSt4pairIKS0_St6vectorIS0_SaIS0_EEESt10_Select1stIS6_ESt4lessIS0_ESaIS6_EE22_M_emplace_hint_uniqueIJRKSt21piecewise_construct_tSt5tupleIJRS2_EESH_IJEEEEESt17_Rb_tree_iteratorIS6_ESt23_Rb_tree_const_iteratorIS6_EDpOT_:
.LFB4888:
	.cfi_startproc
	.cfi_personality 0x9b,DW.ref.__gxx_personality_v0
	.cfi_lsda 0x1b,.LLSDA4888
	endbr64
	pushq	%rbp
	.cfi_def_cfa_offset 16
	.cfi_offset 6, -16
	movq	%rsp, %rbp
	.cfi_def_cfa_register 6
	pushq	%r12
	pushq	%rbx
	subq	$112, %rsp
	.cfi_offset 12, -24
	.cfi_offset 3, -32
	movq	%rdi, -88(%rbp)
	movq	%rsi, -96(%rbp)
	movq	%rdx, -104(%rbp)
	movq	%rcx, -112(%rbp)
	movq	%r8, -120(%rbp)
	movq	%fs:40, %rax
	movq	%rax, -24(%rbp)
	xorl	%eax, %eax
	movq	-120(%rbp), %rax
	movq	%rax, %rdi
	call	_ZSt7forwardISt5tupleIJEEEOT_RNSt16remove_referenceIS2_E4typeE
	movq	%rax, %r12
	movq	-112(%rbp), %rax
	movq	%rax, %rdi
	call	_ZSt7forwardISt5tupleIJRK4nodeEEEOT_RNSt16remove_referenceIS5_E4typeE
	movq	%rax, %rbx
	movq	-104(%rbp), %rax
	movq	%rax, %rdi
	call	_ZSt7forwardIRKSt21piecewise_construct_tEOT_RNSt16remove_referenceIS3_E4typeE
	movq	%rax, %rdx
	movq	-88(%rbp), %rsi
	leaq	-64(%rbp), %rax
	movq	%r12, %r8
	movq	%rbx, %rcx
	movq	%rax, %rdi
.LEHB44:
	call	_ZNSt8_Rb_treeI4nodeSt4pairIKS0_St6vectorIS0_SaIS0_EEESt10_Select1stIS6_ESt4lessIS0_ESaIS6_EE10_Auto_nodeC1IJRKSt21piecewise_construct_tSt5tupleIJRS2_EESI_IJEEEEERSC_DpOT_
.LEHE44:
	leaq	-64(%rbp), %rax
	movq	%rax, %rdi
.LEHB45:
	call	_ZNKSt8_Rb_treeI4nodeSt4pairIKS0_St6vectorIS0_SaIS0_EEESt10_Select1stIS6_ESt4lessIS0_ESaIS6_EE10_Auto_node6_M_keyEv
	movq	%rax, %rdx
	movq	-96(%rbp), %rcx
	movq	-88(%rbp), %rax
	movq	%rcx, %rsi
	movq	%rax, %rdi
	call	_ZNSt8_Rb_treeI4nodeSt4pairIKS0_St6vectorIS0_SaIS0_EEESt10_Select1stIS6_ESt4lessIS0_ESaIS6_EE29_M_get_insert_hint_unique_posESt23_Rb_tree_const_iteratorIS6_ERS2_
	movq	%rax, -48(%rbp)
	movq	%rdx, -40(%rbp)
	movq	-40(%rbp), %rax
	testq	%rax, %rax
	je	.L410
	movq	-48(%rbp), %rcx
	movq	-40(%rbp), %rdx
	leaq	-64(%rbp), %rax
	movq	%rcx, %rsi
	movq	%rax, %rdi
	call	_ZNSt8_Rb_treeI4nodeSt4pairIKS0_St6vectorIS0_SaIS0_EEESt10_Select1stIS6_ESt4lessIS0_ESaIS6_EE10_Auto_node9_M_insertES1_IPSt18_Rb_tree_node_baseSF_E
.LEHE45:
	movq	%rax, %rbx
	jmp	.L411
.L410:
	movq	-48(%rbp), %rdx
	leaq	-72(%rbp), %rax
	movq	%rdx, %rsi
	movq	%rax, %rdi
	call	_ZNSt17_Rb_tree_iteratorISt4pairIK4nodeSt6vectorIS1_SaIS1_EEEEC1EPSt18_Rb_tree_node_base
	movq	-72(%rbp), %rbx
.L411:
	leaq	-64(%rbp), %rax
	movq	%rax, %rdi
	call	_ZNSt8_Rb_treeI4nodeSt4pairIKS0_St6vectorIS0_SaIS0_EEESt10_Select1stIS6_ESt4lessIS0_ESaIS6_EE10_Auto_nodeD1Ev
	movq	%rbx, %rax
	movq	-24(%rbp), %rdx
	subq	%fs:40, %rdx
	je	.L414
	jmp	.L416
.L415:
	endbr64
	movq	%rax, %rbx
	leaq	-64(%rbp), %rax
	movq	%rax, %rdi
	call	_ZNSt8_Rb_treeI4nodeSt4pairIKS0_St6vectorIS0_SaIS0_EEESt10_Select1stIS6_ESt4lessIS0_ESaIS6_EE10_Auto_nodeD1Ev
	movq	%rbx, %rax
	movq	%rax, %rdi
.LEHB46:
	call	_Unwind_Resume@PLT
.LEHE46:
.L416:
	call	__stack_chk_fail@PLT
.L414:
	addq	$112, %rsp
	popq	%rbx
	popq	%r12
	popq	%rbp
	.cfi_def_cfa 7, 8
	ret
	.cfi_endproc
.LFE4888:
	.section	.gcc_except_table
.LLSDA4888:
	.byte	0xff
	.byte	0xff
	.byte	0x1
	.uleb128 .LLSDACSE4888-.LLSDACSB4888
.LLSDACSB4888:
	.uleb128 .LEHB44-.LFB4888
	.uleb128 .LEHE44-.LEHB44
	.uleb128 0
	.uleb128 0
	.uleb128 .LEHB45-.LFB4888
	.uleb128 .LEHE45-.LEHB45
	.uleb128 .L415-.LFB4888
	.uleb128 0
	.uleb128 .LEHB46-.LFB4888
	.uleb128 .LEHE46-.LEHB46
	.uleb128 0
	.uleb128 0
.LLSDACSE4888:
	.section	.text._ZNSt8_Rb_treeI4nodeSt4pairIKS0_St6vectorIS0_SaIS0_EEESt10_Select1stIS6_ESt4lessIS0_ESaIS6_EE22_M_emplace_hint_uniqueIJRKSt21piecewise_construct_tSt5tupleIJRS2_EESH_IJEEEEESt17_Rb_tree_iteratorIS6_ESt23_Rb_tree_const_iteratorIS6_EDpOT_,"axG",@progbits,_ZNSt8_Rb_treeI4nodeSt4pairIKS0_St6vectorIS0_SaIS0_EEESt10_Select1stIS6_ESt4lessIS0_ESaIS6_EE22_M_emplace_hint_uniqueIJRKSt21piecewise_construct_tSt5tupleIJRS2_EESH_IJEEEEESt17_Rb_tree_iteratorIS6_ESt23_Rb_tree_const_iteratorIS6_EDpOT_,comdat
	.size	_ZNSt8_Rb_treeI4nodeSt4pairIKS0_St6vectorIS0_SaIS0_EEESt10_Select1stIS6_ESt4lessIS0_ESaIS6_EE22_M_emplace_hint_uniqueIJRKSt21piecewise_construct_tSt5tupleIJRS2_EESH_IJEEEEESt17_Rb_tree_iteratorIS6_ESt23_Rb_tree_const_iteratorIS6_EDpOT_, .-_ZNSt8_Rb_treeI4nodeSt4pairIKS0_St6vectorIS0_SaIS0_EEESt10_Select1stIS6_ESt4lessIS0_ESaIS6_EE22_M_emplace_hint_uniqueIJRKSt21piecewise_construct_tSt5tupleIJRS2_EESH_IJEEEEESt17_Rb_tree_iteratorIS6_ESt23_Rb_tree_const_iteratorIS6_EDpOT_
	.section	.text._ZNK9__gnu_cxx17__normal_iteratorIP4nodeSt6vectorIS1_SaIS1_EEE4baseEv,"axG",@progbits,_ZNK9__gnu_cxx17__normal_iteratorIP4nodeSt6vectorIS1_SaIS1_EEE4baseEv,comdat
	.align 2
	.weak	_ZNK9__gnu_cxx17__normal_iteratorIP4nodeSt6vectorIS1_SaIS1_EEE4baseEv
	.type	_ZNK9__gnu_cxx17__normal_iteratorIP4nodeSt6vectorIS1_SaIS1_EEE4baseEv, @function
_ZNK9__gnu_cxx17__normal_iteratorIP4nodeSt6vectorIS1_SaIS1_EEE4baseEv:
.LFB4893:
	.cfi_startproc
	endbr64
	pushq	%rbp
	.cfi_def_cfa_offset 16
	.cfi_offset 6, -16
	movq	%rsp, %rbp
	.cfi_def_cfa_register 6
	movq	%rdi, -8(%rbp)
	movq	-8(%rbp), %rax
	popq	%rbp
	.cfi_def_cfa 7, 8
	ret
	.cfi_endproc
.LFE4893:
	.size	_ZNK9__gnu_cxx17__normal_iteratorIP4nodeSt6vectorIS1_SaIS1_EEE4baseEv, .-_ZNK9__gnu_cxx17__normal_iteratorIP4nodeSt6vectorIS1_SaIS1_EEE4baseEv
	.section	.text._ZNSt16allocator_traitsISaI4nodeEE9constructIS0_JRKS0_EEEvRS1_PT_DpOT0_,"axG",@progbits,_ZNSt16allocator_traitsISaI4nodeEE9constructIS0_JRKS0_EEEvRS1_PT_DpOT0_,comdat
	.weak	_ZNSt16allocator_traitsISaI4nodeEE9constructIS0_JRKS0_EEEvRS1_PT_DpOT0_
	.type	_ZNSt16allocator_traitsISaI4nodeEE9constructIS0_JRKS0_EEEvRS1_PT_DpOT0_, @function
_ZNSt16allocator_traitsISaI4nodeEE9constructIS0_JRKS0_EEEvRS1_PT_DpOT0_:
.LFB4894:
	.cfi_startproc
	endbr64
	pushq	%rbp
	.cfi_def_cfa_offset 16
	.cfi_offset 6, -16
	movq	%rsp, %rbp
	.cfi_def_cfa_register 6
	subq	$32, %rsp
	movq	%rdi, -8(%rbp)
	movq	%rsi, -16(%rbp)
	movq	%rdx, -24(%rbp)
	movq	-24(%rbp), %rax
	movq	%rax, %rdi
	call	_ZSt7forwardIRK4nodeEOT_RNSt16remove_referenceIS3_E4typeE
	movq	%rax, %rdx
	movq	-16(%rbp), %rcx
	movq	-8(%rbp), %rax
	movq	%rcx, %rsi
	movq	%rax, %rdi
	call	_ZNSt15__new_allocatorI4nodeE9constructIS0_JRKS0_EEEvPT_DpOT0_
	nop
	leave
	.cfi_def_cfa 7, 8
	ret
	.cfi_endproc
.LFE4894:
	.size	_ZNSt16allocator_traitsISaI4nodeEE9constructIS0_JRKS0_EEEvRS1_PT_DpOT0_, .-_ZNSt16allocator_traitsISaI4nodeEE9constructIS0_JRKS0_EEEvRS1_PT_DpOT0_
	.section	.rodata
.LC2:
	.string	"vector::_M_realloc_insert"
	.section	.text._ZNSt6vectorI4nodeSaIS0_EE17_M_realloc_insertIJRKS0_EEEvN9__gnu_cxx17__normal_iteratorIPS0_S2_EEDpOT_,"axG",@progbits,_ZNSt6vectorI4nodeSaIS0_EE17_M_realloc_insertIJRKS0_EEEvN9__gnu_cxx17__normal_iteratorIPS0_S2_EEDpOT_,comdat
	.align 2
	.weak	_ZNSt6vectorI4nodeSaIS0_EE17_M_realloc_insertIJRKS0_EEEvN9__gnu_cxx17__normal_iteratorIPS0_S2_EEDpOT_
	.type	_ZNSt6vectorI4nodeSaIS0_EE17_M_realloc_insertIJRKS0_EEEvN9__gnu_cxx17__normal_iteratorIPS0_S2_EEDpOT_, @function
_ZNSt6vectorI4nodeSaIS0_EE17_M_realloc_insertIJRKS0_EEEvN9__gnu_cxx17__normal_iteratorIPS0_S2_EEDpOT_:
.LFB4895:
	.cfi_startproc
	.cfi_personality 0x9b,DW.ref.__gxx_personality_v0
	.cfi_lsda 0x1b,.LLSDA4895
	endbr64
	pushq	%rbp
	.cfi_def_cfa_offset 16
	.cfi_offset 6, -16
	movq	%rsp, %rbp
	.cfi_def_cfa_register 6
	pushq	%rbx
	subq	$104, %rsp
	.cfi_offset 3, -24
	movq	%rdi, -88(%rbp)
	movq	%rsi, -96(%rbp)
	movq	%rdx, -104(%rbp)
	movq	%fs:40, %rax
	movq	%rax, -24(%rbp)
	xorl	%eax, %eax
	movq	-88(%rbp), %rax
	leaq	.LC2(%rip), %rdx
	movl	$1, %esi
	movq	%rax, %rdi
.LEHB47:
	call	_ZNKSt6vectorI4nodeSaIS0_EE12_M_check_lenEmPKc
	movq	%rax, -72(%rbp)
	movq	-88(%rbp), %rax
	movq	(%rax), %rax
	movq	%rax, -64(%rbp)
	movq	-88(%rbp), %rax
	movq	8(%rax), %rax
	movq	%rax, -56(%rbp)
	movq	-88(%rbp), %rax
	movq	%rax, %rdi
	call	_ZNSt6vectorI4nodeSaIS0_EE5beginEv
	movq	%rax, -80(%rbp)
	leaq	-80(%rbp), %rdx
	leaq	-96(%rbp), %rax
	movq	%rdx, %rsi
	movq	%rax, %rdi
	call	_ZN9__gnu_cxxmiIP4nodeSt6vectorIS1_SaIS1_EEEENS_17__normal_iteratorIT_T0_E15difference_typeERKS9_SC_
	movq	%rax, -48(%rbp)
	movq	-88(%rbp), %rax
	movq	-72(%rbp), %rdx
	movq	%rdx, %rsi
	movq	%rax, %rdi
	call	_ZNSt12_Vector_baseI4nodeSaIS0_EE11_M_allocateEm
.LEHE47:
	movq	%rax, -40(%rbp)
	movq	-40(%rbp), %rax
	movq	%rax, -32(%rbp)
	movq	-104(%rbp), %rax
	movq	%rax, %rdi
	call	_ZSt7forwardIRK4nodeEOT_RNSt16remove_referenceIS3_E4typeE
	movq	%rax, %rsi
	movq	-48(%rbp), %rdx
	movq	%rdx, %rax
	salq	$2, %rax
	addq	%rdx, %rax
	salq	$3, %rax
	movq	%rax, %rdx
	movq	-40(%rbp), %rax
	leaq	(%rdx,%rax), %rcx
	movq	-88(%rbp), %rax
	movq	%rsi, %rdx
	movq	%rcx, %rsi
	movq	%rax, %rdi
.LEHB48:
	call	_ZNSt16allocator_traitsISaI4nodeEE9constructIS0_JRKS0_EEEvRS1_PT_DpOT0_
.LEHE48:
	movq	$0, -32(%rbp)
	movq	-88(%rbp), %rax
	movq	%rax, %rdi
	call	_ZNSt12_Vector_baseI4nodeSaIS0_EE19_M_get_Tp_allocatorEv
	movq	%rax, %rbx
	leaq	-96(%rbp), %rax
	movq	%rax, %rdi
	call	_ZNK9__gnu_cxx17__normal_iteratorIP4nodeSt6vectorIS1_SaIS1_EEE4baseEv
	movq	(%rax), %rsi
	movq	-40(%rbp), %rdx
	movq	-64(%rbp), %rax
	movq	%rbx, %rcx
	movq	%rax, %rdi
	call	_ZNSt6vectorI4nodeSaIS0_EE11_S_relocateEPS0_S3_S3_RS1_
	movq	%rax, -32(%rbp)
	addq	$40, -32(%rbp)
	movq	-88(%rbp), %rax
	movq	%rax, %rdi
	call	_ZNSt12_Vector_baseI4nodeSaIS0_EE19_M_get_Tp_allocatorEv
	movq	%rax, %rbx
	leaq	-96(%rbp), %rax
	movq	%rax, %rdi
	call	_ZNK9__gnu_cxx17__normal_iteratorIP4nodeSt6vectorIS1_SaIS1_EEE4baseEv
	movq	(%rax), %rax
	movq	-32(%rbp), %rdx
	movq	-56(%rbp), %rsi
	movq	%rbx, %rcx
	movq	%rax, %rdi
	call	_ZNSt6vectorI4nodeSaIS0_EE11_S_relocateEPS0_S3_S3_RS1_
	movq	%rax, -32(%rbp)
	movq	-88(%rbp), %rax
	movq	-88(%rbp), %rdx
	movq	16(%rdx), %rdx
	subq	-64(%rbp), %rdx
	movq	%rdx, %rcx
	sarq	$3, %rcx
	movabsq	$-3689348814741910323, %rdx
	imulq	%rcx, %rdx
	movq	-64(%rbp), %rcx
	movq	%rcx, %rsi
	movq	%rax, %rdi
.LEHB49:
	call	_ZNSt12_Vector_baseI4nodeSaIS0_EE13_M_deallocateEPS0_m
.LEHE49:
	movq	-88(%rbp), %rax
	movq	-40(%rbp), %rdx
	movq	%rdx, (%rax)
	movq	-88(%rbp), %rax
	movq	-32(%rbp), %rdx
	movq	%rdx, 8(%rax)
	movq	-72(%rbp), %rdx
	movq	%rdx, %rax
	salq	$2, %rax
	addq	%rdx, %rax
	salq	$3, %rax
	movq	%rax, %rdx
	movq	-40(%rbp), %rax
	addq	%rax, %rdx
	movq	-88(%rbp), %rax
	movq	%rdx, 16(%rax)
	nop
	movq	-24(%rbp), %rax
	subq	%fs:40, %rax
	je	.L425
	jmp	.L428
.L426:
	endbr64
	movq	%rax, %rdi
	call	__cxa_begin_catch@PLT
	cmpq	$0, -32(%rbp)
	jne	.L422
	movq	-48(%rbp), %rdx
	movq	%rdx, %rax
	salq	$2, %rax
	addq	%rdx, %rax
	salq	$3, %rax
	movq	%rax, %rdx
	movq	-40(%rbp), %rax
	addq	%rax, %rdx
	movq	-88(%rbp), %rax
	movq	%rdx, %rsi
	movq	%rax, %rdi
	call	_ZNSt16allocator_traitsISaI4nodeEE7destroyIS0_EEvRS1_PT_
	jmp	.L423
.L422:
	movq	-88(%rbp), %rax
	movq	%rax, %rdi
	call	_ZNSt12_Vector_baseI4nodeSaIS0_EE19_M_get_Tp_allocatorEv
	movq	%rax, %rdx
	movq	-32(%rbp), %rcx
	movq	-40(%rbp), %rax
	movq	%rcx, %rsi
	movq	%rax, %rdi
.LEHB50:
	call	_ZSt8_DestroyIP4nodeS0_EvT_S2_RSaIT0_E
.L423:
	movq	-88(%rbp), %rax
	movq	-72(%rbp), %rdx
	movq	-40(%rbp), %rcx
	movq	%rcx, %rsi
	movq	%rax, %rdi
	call	_ZNSt12_Vector_baseI4nodeSaIS0_EE13_M_deallocateEPS0_m
	call	__cxa_rethrow@PLT
.LEHE50:
.L427:
	endbr64
	movq	%rax, %rbx
	call	__cxa_end_catch@PLT
	movq	%rbx, %rax
	movq	%rax, %rdi
.LEHB51:
	call	_Unwind_Resume@PLT
.LEHE51:
.L428:
	call	__stack_chk_fail@PLT
.L425:
	movq	-8(%rbp), %rbx
	leave
	.cfi_def_cfa 7, 8
	ret
	.cfi_endproc
.LFE4895:
	.section	.gcc_except_table
	.align 4
.LLSDA4895:
	.byte	0xff
	.byte	0x9b
	.uleb128 .LLSDATT4895-.LLSDATTD4895
.LLSDATTD4895:
	.byte	0x1
	.uleb128 .LLSDACSE4895-.LLSDACSB4895
.LLSDACSB4895:
	.uleb128 .LEHB47-.LFB4895
	.uleb128 .LEHE47-.LEHB47
	.uleb128 0
	.uleb128 0
	.uleb128 .LEHB48-.LFB4895
	.uleb128 .LEHE48-.LEHB48
	.uleb128 .L426-.LFB4895
	.uleb128 0x1
	.uleb128 .LEHB49-.LFB4895
	.uleb128 .LEHE49-.LEHB49
	.uleb128 0
	.uleb128 0
	.uleb128 .LEHB50-.LFB4895
	.uleb128 .LEHE50-.LEHB50
	.uleb128 .L427-.LFB4895
	.uleb128 0
	.uleb128 .LEHB51-.LFB4895
	.uleb128 .LEHE51-.LEHB51
	.uleb128 0
	.uleb128 0
.LLSDACSE4895:
	.byte	0x1
	.byte	0
	.align 4
	.long	0

.LLSDATT4895:
	.section	.text._ZNSt6vectorI4nodeSaIS0_EE17_M_realloc_insertIJRKS0_EEEvN9__gnu_cxx17__normal_iteratorIPS0_S2_EEDpOT_,"axG",@progbits,_ZNSt6vectorI4nodeSaIS0_EE17_M_realloc_insertIJRKS0_EEEvN9__gnu_cxx17__normal_iteratorIPS0_S2_EEDpOT_,comdat
	.size	_ZNSt6vectorI4nodeSaIS0_EE17_M_realloc_insertIJRKS0_EEEvN9__gnu_cxx17__normal_iteratorIPS0_S2_EEDpOT_, .-_ZNSt6vectorI4nodeSaIS0_EE17_M_realloc_insertIJRKS0_EEEvN9__gnu_cxx17__normal_iteratorIPS0_S2_EEDpOT_
	.section	.text._ZNKSt6vectorI4nodeSaIS0_EE6cbeginEv,"axG",@progbits,_ZNKSt6vectorI4nodeSaIS0_EE6cbeginEv,comdat
	.align 2
	.weak	_ZNKSt6vectorI4nodeSaIS0_EE6cbeginEv
	.type	_ZNKSt6vectorI4nodeSaIS0_EE6cbeginEv, @function
_ZNKSt6vectorI4nodeSaIS0_EE6cbeginEv:
.LFB4899:
	.cfi_startproc
	endbr64
	pushq	%rbp
	.cfi_def_cfa_offset 16
	.cfi_offset 6, -16
	movq	%rsp, %rbp
	.cfi_def_cfa_register 6
	subq	$32, %rsp
	movq	%rdi, -24(%rbp)
	movq	%fs:40, %rax
	movq	%rax, -8(%rbp)
	xorl	%eax, %eax
	movq	-24(%rbp), %rdx
	leaq	-16(%rbp), %rax
	movq	%rdx, %rsi
	movq	%rax, %rdi
	call	_ZN9__gnu_cxx17__normal_iteratorIPK4nodeSt6vectorIS1_SaIS1_EEEC1ERKS3_
	movq	-16(%rbp), %rax
	movq	-8(%rbp), %rdx
	subq	%fs:40, %rdx
	je	.L431
	call	__stack_chk_fail@PLT
.L431:
	leave
	.cfi_def_cfa 7, 8
	ret
	.cfi_endproc
.LFE4899:
	.size	_ZNKSt6vectorI4nodeSaIS0_EE6cbeginEv, .-_ZNKSt6vectorI4nodeSaIS0_EE6cbeginEv
	.section	.text._ZN9__gnu_cxxmiIPK4nodeSt6vectorIS1_SaIS1_EEEENS_17__normal_iteratorIT_T0_E15difference_typeERKSA_SD_,"axG",@progbits,_ZN9__gnu_cxxmiIPK4nodeSt6vectorIS1_SaIS1_EEEENS_17__normal_iteratorIT_T0_E15difference_typeERKSA_SD_,comdat
	.weak	_ZN9__gnu_cxxmiIPK4nodeSt6vectorIS1_SaIS1_EEEENS_17__normal_iteratorIT_T0_E15difference_typeERKSA_SD_
	.type	_ZN9__gnu_cxxmiIPK4nodeSt6vectorIS1_SaIS1_EEEENS_17__normal_iteratorIT_T0_E15difference_typeERKSA_SD_, @function
_ZN9__gnu_cxxmiIPK4nodeSt6vectorIS1_SaIS1_EEEENS_17__normal_iteratorIT_T0_E15difference_typeERKSA_SD_:
.LFB4900:
	.cfi_startproc
	endbr64
	pushq	%rbp
	.cfi_def_cfa_offset 16
	.cfi_offset 6, -16
	movq	%rsp, %rbp
	.cfi_def_cfa_register 6
	pushq	%rbx
	subq	$24, %rsp
	.cfi_offset 3, -24
	movq	%rdi, -24(%rbp)
	movq	%rsi, -32(%rbp)
	movq	-24(%rbp), %rax
	movq	%rax, %rdi
	call	_ZNK9__gnu_cxx17__normal_iteratorIPK4nodeSt6vectorIS1_SaIS1_EEE4baseEv
	movq	(%rax), %rbx
	movq	-32(%rbp), %rax
	movq	%rax, %rdi
	call	_ZNK9__gnu_cxx17__normal_iteratorIPK4nodeSt6vectorIS1_SaIS1_EEE4baseEv
	movq	(%rax), %rax
	subq	%rax, %rbx
	movq	%rbx, %rdx
	sarq	$3, %rdx
	movabsq	$-3689348814741910323, %rax
	imulq	%rdx, %rax
	movq	-8(%rbp), %rbx
	leave
	.cfi_def_cfa 7, 8
	ret
	.cfi_endproc
.LFE4900:
	.size	_ZN9__gnu_cxxmiIPK4nodeSt6vectorIS1_SaIS1_EEEENS_17__normal_iteratorIT_T0_E15difference_typeERKSA_SD_, .-_ZN9__gnu_cxxmiIPK4nodeSt6vectorIS1_SaIS1_EEEENS_17__normal_iteratorIT_T0_E15difference_typeERKSA_SD_
	.section	.text._ZNSt6vectorI4nodeSaIS0_EE8_M_eraseEN9__gnu_cxx17__normal_iteratorIPS0_S2_EE,"axG",@progbits,_ZNSt6vectorI4nodeSaIS0_EE8_M_eraseEN9__gnu_cxx17__normal_iteratorIPS0_S2_EE,comdat
	.align 2
	.weak	_ZNSt6vectorI4nodeSaIS0_EE8_M_eraseEN9__gnu_cxx17__normal_iteratorIPS0_S2_EE
	.type	_ZNSt6vectorI4nodeSaIS0_EE8_M_eraseEN9__gnu_cxx17__normal_iteratorIPS0_S2_EE, @function
_ZNSt6vectorI4nodeSaIS0_EE8_M_eraseEN9__gnu_cxx17__normal_iteratorIPS0_S2_EE:
.LFB4901:
	.cfi_startproc
	endbr64
	pushq	%rbp
	.cfi_def_cfa_offset 16
	.cfi_offset 6, -16
	movq	%rsp, %rbp
	.cfi_def_cfa_register 6
	pushq	%rbx
	subq	$56, %rsp
	.cfi_offset 3, -24
	movq	%rdi, -56(%rbp)
	movq	%rsi, -64(%rbp)
	movq	%fs:40, %rax
	movq	%rax, -24(%rbp)
	xorl	%eax, %eax
	movq	-56(%rbp), %rax
	movq	%rax, %rdi
	call	_ZNSt6vectorI4nodeSaIS0_EE3endEv
	movq	%rax, -32(%rbp)
	leaq	-64(%rbp), %rax
	movl	$1, %esi
	movq	%rax, %rdi
	call	_ZNK9__gnu_cxx17__normal_iteratorIP4nodeSt6vectorIS1_SaIS1_EEEplEl
	movq	%rax, -40(%rbp)
	leaq	-32(%rbp), %rdx
	leaq	-40(%rbp), %rax
	movq	%rdx, %rsi
	movq	%rax, %rdi
	call	_ZN9__gnu_cxxneIP4nodeSt6vectorIS1_SaIS1_EEEEbRKNS_17__normal_iteratorIT_T0_EESB_
	testb	%al, %al
	je	.L435
	movq	-56(%rbp), %rax
	movq	%rax, %rdi
	call	_ZNSt6vectorI4nodeSaIS0_EE3endEv
	movq	%rax, %rbx
	leaq	-64(%rbp), %rax
	movl	$1, %esi
	movq	%rax, %rdi
	call	_ZNK9__gnu_cxx17__normal_iteratorIP4nodeSt6vectorIS1_SaIS1_EEEplEl
	movq	%rax, %rcx
	movq	-64(%rbp), %rax
	movq	%rax, %rdx
	movq	%rbx, %rsi
	movq	%rcx, %rdi
	call	_ZSt4moveIN9__gnu_cxx17__normal_iteratorIP4nodeSt6vectorIS2_SaIS2_EEEES7_ET0_T_S9_S8_
.L435:
	movq	-56(%rbp), %rax
	movq	8(%rax), %rax
	leaq	-40(%rax), %rdx
	movq	-56(%rbp), %rax
	movq	%rdx, 8(%rax)
	movq	-56(%rbp), %rax
	movq	8(%rax), %rdx
	movq	-56(%rbp), %rax
	movq	%rdx, %rsi
	movq	%rax, %rdi
	call	_ZNSt16allocator_traitsISaI4nodeEE7destroyIS0_EEvRS1_PT_
	movq	-64(%rbp), %rax
	movq	-24(%rbp), %rdx
	subq	%fs:40, %rdx
	je	.L437
	call	__stack_chk_fail@PLT
.L437:
	movq	-8(%rbp), %rbx
	leave
	.cfi_def_cfa 7, 8
	ret
	.cfi_endproc
.LFE4901:
	.size	_ZNSt6vectorI4nodeSaIS0_EE8_M_eraseEN9__gnu_cxx17__normal_iteratorIPS0_S2_EE, .-_ZNSt6vectorI4nodeSaIS0_EE8_M_eraseEN9__gnu_cxx17__normal_iteratorIPS0_S2_EE
	.section	.text._ZNSt8_Rb_treeI4nodeSt4pairIKS0_St6vectorIS0_SaIS0_EEESt10_Select1stIS6_ESt4lessIS0_ESaIS6_EE5beginEv,"axG",@progbits,_ZNSt8_Rb_treeI4nodeSt4pairIKS0_St6vectorIS0_SaIS0_EEESt10_Select1stIS6_ESt4lessIS0_ESaIS6_EE5beginEv,comdat
	.align 2
	.weak	_ZNSt8_Rb_treeI4nodeSt4pairIKS0_St6vectorIS0_SaIS0_EEESt10_Select1stIS6_ESt4lessIS0_ESaIS6_EE5beginEv
	.type	_ZNSt8_Rb_treeI4nodeSt4pairIKS0_St6vectorIS0_SaIS0_EEESt10_Select1stIS6_ESt4lessIS0_ESaIS6_EE5beginEv, @function
_ZNSt8_Rb_treeI4nodeSt4pairIKS0_St6vectorIS0_SaIS0_EEESt10_Select1stIS6_ESt4lessIS0_ESaIS6_EE5beginEv:
.LFB4902:
	.cfi_startproc
	endbr64
	pushq	%rbp
	.cfi_def_cfa_offset 16
	.cfi_offset 6, -16
	movq	%rsp, %rbp
	.cfi_def_cfa_register 6
	subq	$32, %rsp
	movq	%rdi, -24(%rbp)
	movq	%fs:40, %rax
	movq	%rax, -8(%rbp)
	xorl	%eax, %eax
	movq	-24(%rbp), %rax
	movq	24(%rax), %rdx
	leaq	-16(%rbp), %rax
	movq	%rdx, %rsi
	movq	%rax, %rdi
	call	_ZNSt17_Rb_tree_iteratorISt4pairIK4nodeSt6vectorIS1_SaIS1_EEEEC1EPSt18_Rb_tree_node_base
	movq	-16(%rbp), %rax
	movq	-8(%rbp), %rdx
	subq	%fs:40, %rdx
	je	.L440
	call	__stack_chk_fail@PLT
.L440:
	leave
	.cfi_def_cfa 7, 8
	ret
	.cfi_endproc
.LFE4902:
	.size	_ZNSt8_Rb_treeI4nodeSt4pairIKS0_St6vectorIS0_SaIS0_EEESt10_Select1stIS6_ESt4lessIS0_ESaIS6_EE5beginEv, .-_ZNSt8_Rb_treeI4nodeSt4pairIKS0_St6vectorIS0_SaIS0_EEESt10_Select1stIS6_ESt4lessIS0_ESaIS6_EE5beginEv
	.section	.text._ZNSt8_Rb_treeI4nodeSt4pairIKS0_St6vectorIS0_SaIS0_EEESt10_Select1stIS6_ESt4lessIS0_ESaIS6_EE3endEv,"axG",@progbits,_ZNSt8_Rb_treeI4nodeSt4pairIKS0_St6vectorIS0_SaIS0_EEESt10_Select1stIS6_ESt4lessIS0_ESaIS6_EE3endEv,comdat
	.align 2
	.weak	_ZNSt8_Rb_treeI4nodeSt4pairIKS0_St6vectorIS0_SaIS0_EEESt10_Select1stIS6_ESt4lessIS0_ESaIS6_EE3endEv
	.type	_ZNSt8_Rb_treeI4nodeSt4pairIKS0_St6vectorIS0_SaIS0_EEESt10_Select1stIS6_ESt4lessIS0_ESaIS6_EE3endEv, @function
_ZNSt8_Rb_treeI4nodeSt4pairIKS0_St6vectorIS0_SaIS0_EEESt10_Select1stIS6_ESt4lessIS0_ESaIS6_EE3endEv:
.LFB4903:
	.cfi_startproc
	endbr64
	pushq	%rbp
	.cfi_def_cfa_offset 16
	.cfi_offset 6, -16
	movq	%rsp, %rbp
	.cfi_def_cfa_register 6
	subq	$32, %rsp
	movq	%rdi, -24(%rbp)
	movq	%fs:40, %rax
	movq	%rax, -8(%rbp)
	xorl	%eax, %eax
	movq	-24(%rbp), %rax
	leaq	8(%rax), %rdx
	leaq	-16(%rbp), %rax
	movq	%rdx, %rsi
	movq	%rax, %rdi
	call	_ZNSt17_Rb_tree_iteratorISt4pairIK4nodeSt6vectorIS1_SaIS1_EEEEC1EPSt18_Rb_tree_node_base
	movq	-16(%rbp), %rax
	movq	-8(%rbp), %rdx
	subq	%fs:40, %rdx
	je	.L443
	call	__stack_chk_fail@PLT
.L443:
	leave
	.cfi_def_cfa 7, 8
	ret
	.cfi_endproc
.LFE4903:
	.size	_ZNSt8_Rb_treeI4nodeSt4pairIKS0_St6vectorIS0_SaIS0_EEESt10_Select1stIS6_ESt4lessIS0_ESaIS6_EE3endEv, .-_ZNSt8_Rb_treeI4nodeSt4pairIKS0_St6vectorIS0_SaIS0_EEESt10_Select1stIS6_ESt4lessIS0_ESaIS6_EE3endEv
	.section	.text._ZNSt8_Rb_treeI4nodeSt4pairIKS0_St6vectorIS0_SaIS0_EEESt10_Select1stIS6_ESt4lessIS0_ESaIS6_EE5eraseB5cxx11ESt17_Rb_tree_iteratorIS6_E,"axG",@progbits,_ZNSt8_Rb_treeI4nodeSt4pairIKS0_St6vectorIS0_SaIS0_EEESt10_Select1stIS6_ESt4lessIS0_ESaIS6_EE5eraseB5cxx11ESt17_Rb_tree_iteratorIS6_E,comdat
	.align 2
	.weak	_ZNSt8_Rb_treeI4nodeSt4pairIKS0_St6vectorIS0_SaIS0_EEESt10_Select1stIS6_ESt4lessIS0_ESaIS6_EE5eraseB5cxx11ESt17_Rb_tree_iteratorIS6_E
	.type	_ZNSt8_Rb_treeI4nodeSt4pairIKS0_St6vectorIS0_SaIS0_EEESt10_Select1stIS6_ESt4lessIS0_ESaIS6_EE5eraseB5cxx11ESt17_Rb_tree_iteratorIS6_E, @function
_ZNSt8_Rb_treeI4nodeSt4pairIKS0_St6vectorIS0_SaIS0_EEESt10_Select1stIS6_ESt4lessIS0_ESaIS6_EE5eraseB5cxx11ESt17_Rb_tree_iteratorIS6_E:
.LFB4904:
	.cfi_startproc
	endbr64
	pushq	%rbp
	.cfi_def_cfa_offset 16
	.cfi_offset 6, -16
	movq	%rsp, %rbp
	.cfi_def_cfa_register 6
	subq	$48, %rsp
	movq	%rdi, -40(%rbp)
	movq	%rsi, -48(%rbp)
	movq	%fs:40, %rax
	movq	%rax, -8(%rbp)
	xorl	%eax, %eax
	call	_ZSt23__is_constant_evaluatedv
	testb	%al, %al
	je	.L445
	movq	-40(%rbp), %rax
	movq	%rax, %rdi
	call	_ZNSt8_Rb_treeI4nodeSt4pairIKS0_St6vectorIS0_SaIS0_EEESt10_Select1stIS6_ESt4lessIS0_ESaIS6_EE3endEv
	movq	%rax, -16(%rbp)
	leaq	-16(%rbp), %rdx
	leaq	-48(%rbp), %rax
	movq	%rdx, %rsi
	movq	%rax, %rdi
	call	_ZStneRKSt17_Rb_tree_iteratorISt4pairIK4nodeSt6vectorIS1_SaIS1_EEEES9_
	xorl	$1, %eax
	testb	%al, %al
	je	.L445
	movl	$1, %eax
	jmp	.L446
.L445:
	movl	$0, %eax
.L446:
	testb	%al, %al
	movq	-48(%rbp), %rax
	movq	%rax, -24(%rbp)
	leaq	-24(%rbp), %rax
	movq	%rax, %rdi
	call	_ZNSt17_Rb_tree_iteratorISt4pairIK4nodeSt6vectorIS1_SaIS1_EEEEppEv
	leaq	-48(%rbp), %rdx
	leaq	-16(%rbp), %rax
	movq	%rdx, %rsi
	movq	%rax, %rdi
	call	_ZNSt23_Rb_tree_const_iteratorISt4pairIK4nodeSt6vectorIS1_SaIS1_EEEEC1ERKSt17_Rb_tree_iteratorIS6_E
	movq	-16(%rbp), %rdx
	movq	-40(%rbp), %rax
	movq	%rdx, %rsi
	movq	%rax, %rdi
	call	_ZNSt8_Rb_treeI4nodeSt4pairIKS0_St6vectorIS0_SaIS0_EEESt10_Select1stIS6_ESt4lessIS0_ESaIS6_EE12_M_erase_auxESt23_Rb_tree_const_iteratorIS6_E
	movq	-24(%rbp), %rax
	movq	-8(%rbp), %rdx
	subq	%fs:40, %rdx
	je	.L449
	call	__stack_chk_fail@PLT
.L449:
	leave
	.cfi_def_cfa 7, 8
	ret
	.cfi_endproc
.LFE4904:
	.size	_ZNSt8_Rb_treeI4nodeSt4pairIKS0_St6vectorIS0_SaIS0_EEESt10_Select1stIS6_ESt4lessIS0_ESaIS6_EE5eraseB5cxx11ESt17_Rb_tree_iteratorIS6_E, .-_ZNSt8_Rb_treeI4nodeSt4pairIKS0_St6vectorIS0_SaIS0_EEESt10_Select1stIS6_ESt4lessIS0_ESaIS6_EE5eraseB5cxx11ESt17_Rb_tree_iteratorIS6_E
	.section	.text._ZNSt15__new_allocatorISt13_Rb_tree_nodeISt4pairIK4nodeSt6vectorIS2_SaIS2_EEEEEC2ERKS9_,"axG",@progbits,_ZNSt15__new_allocatorISt13_Rb_tree_nodeISt4pairIK4nodeSt6vectorIS2_SaIS2_EEEEEC5ERKS9_,comdat
	.align 2
	.weak	_ZNSt15__new_allocatorISt13_Rb_tree_nodeISt4pairIK4nodeSt6vectorIS2_SaIS2_EEEEEC2ERKS9_
	.type	_ZNSt15__new_allocatorISt13_Rb_tree_nodeISt4pairIK4nodeSt6vectorIS2_SaIS2_EEEEEC2ERKS9_, @function
_ZNSt15__new_allocatorISt13_Rb_tree_nodeISt4pairIK4nodeSt6vectorIS2_SaIS2_EEEEEC2ERKS9_:
.LFB4906:
	.cfi_startproc
	endbr64
	pushq	%rbp
	.cfi_def_cfa_offset 16
	.cfi_offset 6, -16
	movq	%rsp, %rbp
	.cfi_def_cfa_register 6
	movq	%rdi, -8(%rbp)
	movq	%rsi, -16(%rbp)
	nop
	popq	%rbp
	.cfi_def_cfa 7, 8
	ret
	.cfi_endproc
.LFE4906:
	.size	_ZNSt15__new_allocatorISt13_Rb_tree_nodeISt4pairIK4nodeSt6vectorIS2_SaIS2_EEEEEC2ERKS9_, .-_ZNSt15__new_allocatorISt13_Rb_tree_nodeISt4pairIK4nodeSt6vectorIS2_SaIS2_EEEEEC2ERKS9_
	.weak	_ZNSt15__new_allocatorISt13_Rb_tree_nodeISt4pairIK4nodeSt6vectorIS2_SaIS2_EEEEEC1ERKS9_
	.set	_ZNSt15__new_allocatorISt13_Rb_tree_nodeISt4pairIK4nodeSt6vectorIS2_SaIS2_EEEEEC1ERKS9_,_ZNSt15__new_allocatorISt13_Rb_tree_nodeISt4pairIK4nodeSt6vectorIS2_SaIS2_EEEEEC2ERKS9_
	.section	.text._ZNSt15__new_allocatorISt13_Rb_tree_nodeISt4pairIK4nodeSt6vectorIS2_SaIS2_EEEEED2Ev,"axG",@progbits,_ZNSt15__new_allocatorISt13_Rb_tree_nodeISt4pairIK4nodeSt6vectorIS2_SaIS2_EEEEED5Ev,comdat
	.align 2
	.weak	_ZNSt15__new_allocatorISt13_Rb_tree_nodeISt4pairIK4nodeSt6vectorIS2_SaIS2_EEEEED2Ev
	.type	_ZNSt15__new_allocatorISt13_Rb_tree_nodeISt4pairIK4nodeSt6vectorIS2_SaIS2_EEEEED2Ev, @function
_ZNSt15__new_allocatorISt13_Rb_tree_nodeISt4pairIK4nodeSt6vectorIS2_SaIS2_EEEEED2Ev:
.LFB4909:
	.cfi_startproc
	endbr64
	pushq	%rbp
	.cfi_def_cfa_offset 16
	.cfi_offset 6, -16
	movq	%rsp, %rbp
	.cfi_def_cfa_register 6
	movq	%rdi, -8(%rbp)
	nop
	popq	%rbp
	.cfi_def_cfa 7, 8
	ret
	.cfi_endproc
.LFE4909:
	.size	_ZNSt15__new_allocatorISt13_Rb_tree_nodeISt4pairIK4nodeSt6vectorIS2_SaIS2_EEEEED2Ev, .-_ZNSt15__new_allocatorISt13_Rb_tree_nodeISt4pairIK4nodeSt6vectorIS2_SaIS2_EEEEED2Ev
	.weak	_ZNSt15__new_allocatorISt13_Rb_tree_nodeISt4pairIK4nodeSt6vectorIS2_SaIS2_EEEEED1Ev
	.set	_ZNSt15__new_allocatorISt13_Rb_tree_nodeISt4pairIK4nodeSt6vectorIS2_SaIS2_EEEEED1Ev,_ZNSt15__new_allocatorISt13_Rb_tree_nodeISt4pairIK4nodeSt6vectorIS2_SaIS2_EEEEED2Ev
	.section	.text._ZNSaISt13_Rb_tree_nodeISt4pairIK4nodeSt6vectorIS1_SaIS1_EEEEEC2Ev,"axG",@progbits,_ZNSaISt13_Rb_tree_nodeISt4pairIK4nodeSt6vectorIS1_SaIS1_EEEEEC5Ev,comdat
	.align 2
	.weak	_ZNSaISt13_Rb_tree_nodeISt4pairIK4nodeSt6vectorIS1_SaIS1_EEEEEC2Ev
	.type	_ZNSaISt13_Rb_tree_nodeISt4pairIK4nodeSt6vectorIS1_SaIS1_EEEEEC2Ev, @function
_ZNSaISt13_Rb_tree_nodeISt4pairIK4nodeSt6vectorIS1_SaIS1_EEEEEC2Ev:
.LFB4912:
	.cfi_startproc
	endbr64
	pushq	%rbp
	.cfi_def_cfa_offset 16
	.cfi_offset 6, -16
	movq	%rsp, %rbp
	.cfi_def_cfa_register 6
	subq	$16, %rsp
	movq	%rdi, -8(%rbp)
	movq	-8(%rbp), %rax
	movq	%rax, %rdi
	call	_ZNSt15__new_allocatorISt13_Rb_tree_nodeISt4pairIK4nodeSt6vectorIS2_SaIS2_EEEEEC2Ev
	nop
	leave
	.cfi_def_cfa 7, 8
	ret
	.cfi_endproc
.LFE4912:
	.size	_ZNSaISt13_Rb_tree_nodeISt4pairIK4nodeSt6vectorIS1_SaIS1_EEEEEC2Ev, .-_ZNSaISt13_Rb_tree_nodeISt4pairIK4nodeSt6vectorIS1_SaIS1_EEEEEC2Ev
	.weak	_ZNSaISt13_Rb_tree_nodeISt4pairIK4nodeSt6vectorIS1_SaIS1_EEEEEC1Ev
	.set	_ZNSaISt13_Rb_tree_nodeISt4pairIK4nodeSt6vectorIS1_SaIS1_EEEEEC1Ev,_ZNSaISt13_Rb_tree_nodeISt4pairIK4nodeSt6vectorIS1_SaIS1_EEEEEC2Ev
	.section	.text._ZNSt20_Rb_tree_key_compareISt4lessI4nodeEEC2Ev,"axG",@progbits,_ZNSt20_Rb_tree_key_compareISt4lessI4nodeEEC5Ev,comdat
	.align 2
	.weak	_ZNSt20_Rb_tree_key_compareISt4lessI4nodeEEC2Ev
	.type	_ZNSt20_Rb_tree_key_compareISt4lessI4nodeEEC2Ev, @function
_ZNSt20_Rb_tree_key_compareISt4lessI4nodeEEC2Ev:
.LFB4915:
	.cfi_startproc
	endbr64
	pushq	%rbp
	.cfi_def_cfa_offset 16
	.cfi_offset 6, -16
	movq	%rsp, %rbp
	.cfi_def_cfa_register 6
	movq	%rdi, -8(%rbp)
	nop
	popq	%rbp
	.cfi_def_cfa 7, 8
	ret
	.cfi_endproc
.LFE4915:
	.size	_ZNSt20_Rb_tree_key_compareISt4lessI4nodeEEC2Ev, .-_ZNSt20_Rb_tree_key_compareISt4lessI4nodeEEC2Ev
	.weak	_ZNSt20_Rb_tree_key_compareISt4lessI4nodeEEC1Ev
	.set	_ZNSt20_Rb_tree_key_compareISt4lessI4nodeEEC1Ev,_ZNSt20_Rb_tree_key_compareISt4lessI4nodeEEC2Ev
	.section	.text._ZSt4moveIRSt4lessI4nodeEEONSt16remove_referenceIT_E4typeEOS5_,"axG",@progbits,_ZSt4moveIRSt4lessI4nodeEEONSt16remove_referenceIT_E4typeEOS5_,comdat
	.weak	_ZSt4moveIRSt4lessI4nodeEEONSt16remove_referenceIT_E4typeEOS5_
	.type	_ZSt4moveIRSt4lessI4nodeEEONSt16remove_referenceIT_E4typeEOS5_, @function
_ZSt4moveIRSt4lessI4nodeEEONSt16remove_referenceIT_E4typeEOS5_:
.LFB4917:
	.cfi_startproc
	endbr64
	pushq	%rbp
	.cfi_def_cfa_offset 16
	.cfi_offset 6, -16
	movq	%rsp, %rbp
	.cfi_def_cfa_register 6
	movq	%rdi, -8(%rbp)
	movq	-8(%rbp), %rax
	popq	%rbp
	.cfi_def_cfa 7, 8
	ret
	.cfi_endproc
.LFE4917:
	.size	_ZSt4moveIRSt4lessI4nodeEEONSt16remove_referenceIT_E4typeEOS5_, .-_ZSt4moveIRSt4lessI4nodeEEONSt16remove_referenceIT_E4typeEOS5_
	.section	.text._ZNSt8_Rb_treeI4nodeSt4pairIKS0_St6vectorIS0_SaIS0_EEESt10_Select1stIS6_ESt4lessIS0_ESaIS6_EE14_M_move_assignERSC_St17integral_constantIbLb1EE,"axG",@progbits,_ZNSt8_Rb_treeI4nodeSt4pairIKS0_St6vectorIS0_SaIS0_EEESt10_Select1stIS6_ESt4lessIS0_ESaIS6_EE14_M_move_assignERSC_St17integral_constantIbLb1EE,comdat
	.align 2
	.weak	_ZNSt8_Rb_treeI4nodeSt4pairIKS0_St6vectorIS0_SaIS0_EEESt10_Select1stIS6_ESt4lessIS0_ESaIS6_EE14_M_move_assignERSC_St17integral_constantIbLb1EE
	.type	_ZNSt8_Rb_treeI4nodeSt4pairIKS0_St6vectorIS0_SaIS0_EEESt10_Select1stIS6_ESt4lessIS0_ESaIS6_EE14_M_move_assignERSC_St17integral_constantIbLb1EE, @function
_ZNSt8_Rb_treeI4nodeSt4pairIKS0_St6vectorIS0_SaIS0_EEESt10_Select1stIS6_ESt4lessIS0_ESaIS6_EE14_M_move_assignERSC_St17integral_constantIbLb1EE:
.LFB4918:
	.cfi_startproc
	endbr64
	pushq	%rbp
	.cfi_def_cfa_offset 16
	.cfi_offset 6, -16
	movq	%rsp, %rbp
	.cfi_def_cfa_register 6
	pushq	%rbx
	subq	$24, %rsp
	.cfi_offset 3, -24
	movq	%rdi, -24(%rbp)
	movq	%rsi, -32(%rbp)
	movq	-24(%rbp), %rax
	movq	%rax, %rdi
	call	_ZNSt8_Rb_treeI4nodeSt4pairIKS0_St6vectorIS0_SaIS0_EEESt10_Select1stIS6_ESt4lessIS0_ESaIS6_EE5clearEv
	movq	-32(%rbp), %rax
	movq	%rax, %rdi
	call	_ZNSt8_Rb_treeI4nodeSt4pairIKS0_St6vectorIS0_SaIS0_EEESt10_Select1stIS6_ESt4lessIS0_ESaIS6_EE7_M_rootEv
	movq	(%rax), %rax
	testq	%rax, %rax
	setne	%al
	testb	%al, %al
	je	.L457
	movq	-32(%rbp), %rdx
	movq	-24(%rbp), %rax
	movq	%rdx, %rsi
	movq	%rax, %rdi
	call	_ZNSt8_Rb_treeI4nodeSt4pairIKS0_St6vectorIS0_SaIS0_EEESt10_Select1stIS6_ESt4lessIS0_ESaIS6_EE12_M_move_dataERSC_St17integral_constantIbLb1EE
.L457:
	movq	-32(%rbp), %rax
	movq	%rax, %rdi
	call	_ZNSt8_Rb_treeI4nodeSt4pairIKS0_St6vectorIS0_SaIS0_EEESt10_Select1stIS6_ESt4lessIS0_ESaIS6_EE21_M_get_Node_allocatorEv
	movq	%rax, %rbx
	movq	-24(%rbp), %rax
	movq	%rax, %rdi
	call	_ZNSt8_Rb_treeI4nodeSt4pairIKS0_St6vectorIS0_SaIS0_EEESt10_Select1stIS6_ESt4lessIS0_ESaIS6_EE21_M_get_Node_allocatorEv
	movq	%rbx, %rsi
	movq	%rax, %rdi
	call	_ZSt15__alloc_on_moveISaISt13_Rb_tree_nodeISt4pairIK4nodeSt6vectorIS2_SaIS2_EEEEEEvRT_SB_
	nop
	movq	-8(%rbp), %rbx
	leave
	.cfi_def_cfa 7, 8
	ret
	.cfi_endproc
.LFE4918:
	.size	_ZNSt8_Rb_treeI4nodeSt4pairIKS0_St6vectorIS0_SaIS0_EEESt10_Select1stIS6_ESt4lessIS0_ESaIS6_EE14_M_move_assignERSC_St17integral_constantIbLb1EE, .-_ZNSt8_Rb_treeI4nodeSt4pairIKS0_St6vectorIS0_SaIS0_EEESt10_Select1stIS6_ESt4lessIS0_ESaIS6_EE14_M_move_assignERSC_St17integral_constantIbLb1EE
	.section	.text._ZSt11__addressofIKSt8_Rb_treeI4nodeSt4pairIKS1_St6vectorIS1_SaIS1_EEESt10_Select1stIS7_ESt4lessIS1_ESaIS7_EEEPT_RSF_,"axG",@progbits,_ZSt11__addressofIKSt8_Rb_treeI4nodeSt4pairIKS1_St6vectorIS1_SaIS1_EEESt10_Select1stIS7_ESt4lessIS1_ESaIS7_EEEPT_RSF_,comdat
	.weak	_ZSt11__addressofIKSt8_Rb_treeI4nodeSt4pairIKS1_St6vectorIS1_SaIS1_EEESt10_Select1stIS7_ESt4lessIS1_ESaIS7_EEEPT_RSF_
	.type	_ZSt11__addressofIKSt8_Rb_treeI4nodeSt4pairIKS1_St6vectorIS1_SaIS1_EEESt10_Select1stIS7_ESt4lessIS1_ESaIS7_EEEPT_RSF_, @function
_ZSt11__addressofIKSt8_Rb_treeI4nodeSt4pairIKS1_St6vectorIS1_SaIS1_EEESt10_Select1stIS7_ESt4lessIS1_ESaIS7_EEEPT_RSF_:
.LFB4919:
	.cfi_startproc
	endbr64
	pushq	%rbp
	.cfi_def_cfa_offset 16
	.cfi_offset 6, -16
	movq	%rsp, %rbp
	.cfi_def_cfa_register 6
	movq	%rdi, -8(%rbp)
	movq	-8(%rbp), %rax
	popq	%rbp
	.cfi_def_cfa 7, 8
	ret
	.cfi_endproc
.LFE4919:
	.size	_ZSt11__addressofIKSt8_Rb_treeI4nodeSt4pairIKS1_St6vectorIS1_SaIS1_EEESt10_Select1stIS7_ESt4lessIS1_ESaIS7_EEEPT_RSF_, .-_ZSt11__addressofIKSt8_Rb_treeI4nodeSt4pairIKS1_St6vectorIS1_SaIS1_EEESt10_Select1stIS7_ESt4lessIS1_ESaIS7_EEEPT_RSF_
	.section	.text._ZNSt8_Rb_treeI4nodeSt4pairIKS0_St6vectorIS0_SaIS0_EEESt10_Select1stIS6_ESt4lessIS0_ESaIS6_EE21_M_get_Node_allocatorEv,"axG",@progbits,_ZNSt8_Rb_treeI4nodeSt4pairIKS0_St6vectorIS0_SaIS0_EEESt10_Select1stIS6_ESt4lessIS0_ESaIS6_EE21_M_get_Node_allocatorEv,comdat
	.align 2
	.weak	_ZNSt8_Rb_treeI4nodeSt4pairIKS0_St6vectorIS0_SaIS0_EEESt10_Select1stIS6_ESt4lessIS0_ESaIS6_EE21_M_get_Node_allocatorEv
	.type	_ZNSt8_Rb_treeI4nodeSt4pairIKS0_St6vectorIS0_SaIS0_EEESt10_Select1stIS6_ESt4lessIS0_ESaIS6_EE21_M_get_Node_allocatorEv, @function
_ZNSt8_Rb_treeI4nodeSt4pairIKS0_St6vectorIS0_SaIS0_EEESt10_Select1stIS6_ESt4lessIS0_ESaIS6_EE21_M_get_Node_allocatorEv:
.LFB4920:
	.cfi_startproc
	endbr64
	pushq	%rbp
	.cfi_def_cfa_offset 16
	.cfi_offset 6, -16
	movq	%rsp, %rbp
	.cfi_def_cfa_register 6
	movq	%rdi, -8(%rbp)
	movq	-8(%rbp), %rax
	popq	%rbp
	.cfi_def_cfa 7, 8
	ret
	.cfi_endproc
.LFE4920:
	.size	_ZNSt8_Rb_treeI4nodeSt4pairIKS0_St6vectorIS0_SaIS0_EEESt10_Select1stIS6_ESt4lessIS0_ESaIS6_EE21_M_get_Node_allocatorEv, .-_ZNSt8_Rb_treeI4nodeSt4pairIKS0_St6vectorIS0_SaIS0_EEESt10_Select1stIS6_ESt4lessIS0_ESaIS6_EE21_M_get_Node_allocatorEv
	.section	.text._ZNKSt8_Rb_treeI4nodeSt4pairIKS0_St6vectorIS0_SaIS0_EEESt10_Select1stIS6_ESt4lessIS0_ESaIS6_EE21_M_get_Node_allocatorEv,"axG",@progbits,_ZNKSt8_Rb_treeI4nodeSt4pairIKS0_St6vectorIS0_SaIS0_EEESt10_Select1stIS6_ESt4lessIS0_ESaIS6_EE21_M_get_Node_allocatorEv,comdat
	.align 2
	.weak	_ZNKSt8_Rb_treeI4nodeSt4pairIKS0_St6vectorIS0_SaIS0_EEESt10_Select1stIS6_ESt4lessIS0_ESaIS6_EE21_M_get_Node_allocatorEv
	.type	_ZNKSt8_Rb_treeI4nodeSt4pairIKS0_St6vectorIS0_SaIS0_EEESt10_Select1stIS6_ESt4lessIS0_ESaIS6_EE21_M_get_Node_allocatorEv, @function
_ZNKSt8_Rb_treeI4nodeSt4pairIKS0_St6vectorIS0_SaIS0_EEESt10_Select1stIS6_ESt4lessIS0_ESaIS6_EE21_M_get_Node_allocatorEv:
.LFB4921:
	.cfi_startproc
	endbr64
	pushq	%rbp
	.cfi_def_cfa_offset 16
	.cfi_offset 6, -16
	movq	%rsp, %rbp
	.cfi_def_cfa_register 6
	movq	%rdi, -8(%rbp)
	movq	-8(%rbp), %rax
	popq	%rbp
	.cfi_def_cfa 7, 8
	ret
	.cfi_endproc
.LFE4921:
	.size	_ZNKSt8_Rb_treeI4nodeSt4pairIKS0_St6vectorIS0_SaIS0_EEESt10_Select1stIS6_ESt4lessIS0_ESaIS6_EE21_M_get_Node_allocatorEv, .-_ZNKSt8_Rb_treeI4nodeSt4pairIKS0_St6vectorIS0_SaIS0_EEESt10_Select1stIS6_ESt4lessIS0_ESaIS6_EE21_M_get_Node_allocatorEv
	.section	.text._ZStneRKSaISt13_Rb_tree_nodeISt4pairIK4nodeSt6vectorIS1_SaIS1_EEEEESA_,"axG",@progbits,_ZStneRKSaISt13_Rb_tree_nodeISt4pairIK4nodeSt6vectorIS1_SaIS1_EEEEESA_,comdat
	.weak	_ZStneRKSaISt13_Rb_tree_nodeISt4pairIK4nodeSt6vectorIS1_SaIS1_EEEEESA_
	.type	_ZStneRKSaISt13_Rb_tree_nodeISt4pairIK4nodeSt6vectorIS1_SaIS1_EEEEESA_, @function
_ZStneRKSaISt13_Rb_tree_nodeISt4pairIK4nodeSt6vectorIS1_SaIS1_EEEEESA_:
.LFB4922:
	.cfi_startproc
	endbr64
	pushq	%rbp
	.cfi_def_cfa_offset 16
	.cfi_offset 6, -16
	movq	%rsp, %rbp
	.cfi_def_cfa_register 6
	movq	%rdi, -8(%rbp)
	movq	%rsi, -16(%rbp)
	movl	$0, %eax
	popq	%rbp
	.cfi_def_cfa 7, 8
	ret
	.cfi_endproc
.LFE4922:
	.size	_ZStneRKSaISt13_Rb_tree_nodeISt4pairIK4nodeSt6vectorIS1_SaIS1_EEEEESA_, .-_ZStneRKSaISt13_Rb_tree_nodeISt4pairIK4nodeSt6vectorIS1_SaIS1_EEEEESA_
	.section	.text._ZNSt8_Rb_treeI4nodeSt4pairIKS0_St6vectorIS0_SaIS0_EEESt10_Select1stIS6_ESt4lessIS0_ESaIS6_EE5clearEv,"axG",@progbits,_ZNSt8_Rb_treeI4nodeSt4pairIKS0_St6vectorIS0_SaIS0_EEESt10_Select1stIS6_ESt4lessIS0_ESaIS6_EE5clearEv,comdat
	.align 2
	.weak	_ZNSt8_Rb_treeI4nodeSt4pairIKS0_St6vectorIS0_SaIS0_EEESt10_Select1stIS6_ESt4lessIS0_ESaIS6_EE5clearEv
	.type	_ZNSt8_Rb_treeI4nodeSt4pairIKS0_St6vectorIS0_SaIS0_EEESt10_Select1stIS6_ESt4lessIS0_ESaIS6_EE5clearEv, @function
_ZNSt8_Rb_treeI4nodeSt4pairIKS0_St6vectorIS0_SaIS0_EEESt10_Select1stIS6_ESt4lessIS0_ESaIS6_EE5clearEv:
.LFB4923:
	.cfi_startproc
	.cfi_personality 0x9b,DW.ref.__gxx_personality_v0
	.cfi_lsda 0x1b,.LLSDA4923
	endbr64
	pushq	%rbp
	.cfi_def_cfa_offset 16
	.cfi_offset 6, -16
	movq	%rsp, %rbp
	.cfi_def_cfa_register 6
	subq	$16, %rsp
	movq	%rdi, -8(%rbp)
	movq	-8(%rbp), %rax
	movq	%rax, %rdi
	call	_ZNSt8_Rb_treeI4nodeSt4pairIKS0_St6vectorIS0_SaIS0_EEESt10_Select1stIS6_ESt4lessIS0_ESaIS6_EE8_M_beginEv
	movq	%rax, %rdx
	movq	-8(%rbp), %rax
	movq	%rdx, %rsi
	movq	%rax, %rdi
	call	_ZNSt8_Rb_treeI4nodeSt4pairIKS0_St6vectorIS0_SaIS0_EEESt10_Select1stIS6_ESt4lessIS0_ESaIS6_EE8_M_eraseEPSt13_Rb_tree_nodeIS6_E
	movq	-8(%rbp), %rax
	addq	$8, %rax
	movq	%rax, %rdi
	call	_ZNSt15_Rb_tree_header8_M_resetEv
	nop
	leave
	.cfi_def_cfa 7, 8
	ret
	.cfi_endproc
.LFE4923:
	.section	.gcc_except_table
.LLSDA4923:
	.byte	0xff
	.byte	0xff
	.byte	0x1
	.uleb128 .LLSDACSE4923-.LLSDACSB4923
.LLSDACSB4923:
.LLSDACSE4923:
	.section	.text._ZNSt8_Rb_treeI4nodeSt4pairIKS0_St6vectorIS0_SaIS0_EEESt10_Select1stIS6_ESt4lessIS0_ESaIS6_EE5clearEv,"axG",@progbits,_ZNSt8_Rb_treeI4nodeSt4pairIKS0_St6vectorIS0_SaIS0_EEESt10_Select1stIS6_ESt4lessIS0_ESaIS6_EE5clearEv,comdat
	.size	_ZNSt8_Rb_treeI4nodeSt4pairIKS0_St6vectorIS0_SaIS0_EEESt10_Select1stIS6_ESt4lessIS0_ESaIS6_EE5clearEv, .-_ZNSt8_Rb_treeI4nodeSt4pairIKS0_St6vectorIS0_SaIS0_EEESt10_Select1stIS6_ESt4lessIS0_ESaIS6_EE5clearEv
	.section	.text._ZSt15__alloc_on_copyISaISt13_Rb_tree_nodeISt4pairIK4nodeSt6vectorIS2_SaIS2_EEEEEEvRT_RKSA_,"axG",@progbits,_ZSt15__alloc_on_copyISaISt13_Rb_tree_nodeISt4pairIK4nodeSt6vectorIS2_SaIS2_EEEEEEvRT_RKSA_,comdat
	.weak	_ZSt15__alloc_on_copyISaISt13_Rb_tree_nodeISt4pairIK4nodeSt6vectorIS2_SaIS2_EEEEEEvRT_RKSA_
	.type	_ZSt15__alloc_on_copyISaISt13_Rb_tree_nodeISt4pairIK4nodeSt6vectorIS2_SaIS2_EEEEEEvRT_RKSA_, @function
_ZSt15__alloc_on_copyISaISt13_Rb_tree_nodeISt4pairIK4nodeSt6vectorIS2_SaIS2_EEEEEEvRT_RKSA_:
.LFB4924:
	.cfi_startproc
	endbr64
	pushq	%rbp
	.cfi_def_cfa_offset 16
	.cfi_offset 6, -16
	movq	%rsp, %rbp
	.cfi_def_cfa_register 6
	movq	%rdi, -8(%rbp)
	movq	%rsi, -16(%rbp)
	nop
	popq	%rbp
	.cfi_def_cfa 7, 8
	ret
	.cfi_endproc
.LFE4924:
	.size	_ZSt15__alloc_on_copyISaISt13_Rb_tree_nodeISt4pairIK4nodeSt6vectorIS2_SaIS2_EEEEEEvRT_RKSA_, .-_ZSt15__alloc_on_copyISaISt13_Rb_tree_nodeISt4pairIK4nodeSt6vectorIS2_SaIS2_EEEEEEvRT_RKSA_
	.section	.text._ZNSt8_Rb_treeI4nodeSt4pairIKS0_St6vectorIS0_SaIS0_EEESt10_Select1stIS6_ESt4lessIS0_ESaIS6_EE20_Reuse_or_alloc_nodeC2ERSC_,"axG",@progbits,_ZNSt8_Rb_treeI4nodeSt4pairIKS0_St6vectorIS0_SaIS0_EEESt10_Select1stIS6_ESt4lessIS0_ESaIS6_EE20_Reuse_or_alloc_nodeC5ERSC_,comdat
	.align 2
	.weak	_ZNSt8_Rb_treeI4nodeSt4pairIKS0_St6vectorIS0_SaIS0_EEESt10_Select1stIS6_ESt4lessIS0_ESaIS6_EE20_Reuse_or_alloc_nodeC2ERSC_
	.type	_ZNSt8_Rb_treeI4nodeSt4pairIKS0_St6vectorIS0_SaIS0_EEESt10_Select1stIS6_ESt4lessIS0_ESaIS6_EE20_Reuse_or_alloc_nodeC2ERSC_, @function
_ZNSt8_Rb_treeI4nodeSt4pairIKS0_St6vectorIS0_SaIS0_EEESt10_Select1stIS6_ESt4lessIS0_ESaIS6_EE20_Reuse_or_alloc_nodeC2ERSC_:
.LFB4926:
	.cfi_startproc
	endbr64
	pushq	%rbp
	.cfi_def_cfa_offset 16
	.cfi_offset 6, -16
	movq	%rsp, %rbp
	.cfi_def_cfa_register 6
	subq	$16, %rsp
	movq	%rdi, -8(%rbp)
	movq	%rsi, -16(%rbp)
	movq	-16(%rbp), %rax
	movq	%rax, %rdi
	call	_ZNSt8_Rb_treeI4nodeSt4pairIKS0_St6vectorIS0_SaIS0_EEESt10_Select1stIS6_ESt4lessIS0_ESaIS6_EE7_M_rootEv
	movq	(%rax), %rdx
	movq	-8(%rbp), %rax
	movq	%rdx, (%rax)
	movq	-16(%rbp), %rax
	movq	%rax, %rdi
	call	_ZNSt8_Rb_treeI4nodeSt4pairIKS0_St6vectorIS0_SaIS0_EEESt10_Select1stIS6_ESt4lessIS0_ESaIS6_EE12_M_rightmostEv
	movq	(%rax), %rdx
	movq	-8(%rbp), %rax
	movq	%rdx, 8(%rax)
	movq	-8(%rbp), %rax
	movq	-16(%rbp), %rdx
	movq	%rdx, 16(%rax)
	movq	-8(%rbp), %rax
	movq	(%rax), %rax
	testq	%rax, %rax
	je	.L469
	movq	-8(%rbp), %rax
	movq	(%rax), %rax
	movq	$0, 8(%rax)
	movq	-8(%rbp), %rax
	movq	8(%rax), %rax
	movq	16(%rax), %rax
	testq	%rax, %rax
	je	.L471
	movq	-8(%rbp), %rax
	movq	8(%rax), %rax
	movq	16(%rax), %rdx
	movq	-8(%rbp), %rax
	movq	%rdx, 8(%rax)
	jmp	.L471
.L469:
	movq	-8(%rbp), %rax
	movq	$0, 8(%rax)
.L471:
	nop
	leave
	.cfi_def_cfa 7, 8
	ret
	.cfi_endproc
.LFE4926:
	.size	_ZNSt8_Rb_treeI4nodeSt4pairIKS0_St6vectorIS0_SaIS0_EEESt10_Select1stIS6_ESt4lessIS0_ESaIS6_EE20_Reuse_or_alloc_nodeC2ERSC_, .-_ZNSt8_Rb_treeI4nodeSt4pairIKS0_St6vectorIS0_SaIS0_EEESt10_Select1stIS6_ESt4lessIS0_ESaIS6_EE20_Reuse_or_alloc_nodeC2ERSC_
	.weak	_ZNSt8_Rb_treeI4nodeSt4pairIKS0_St6vectorIS0_SaIS0_EEESt10_Select1stIS6_ESt4lessIS0_ESaIS6_EE20_Reuse_or_alloc_nodeC1ERSC_
	.set	_ZNSt8_Rb_treeI4nodeSt4pairIKS0_St6vectorIS0_SaIS0_EEESt10_Select1stIS6_ESt4lessIS0_ESaIS6_EE20_Reuse_or_alloc_nodeC1ERSC_,_ZNSt8_Rb_treeI4nodeSt4pairIKS0_St6vectorIS0_SaIS0_EEESt10_Select1stIS6_ESt4lessIS0_ESaIS6_EE20_Reuse_or_alloc_nodeC2ERSC_
	.section	.text._ZNSt8_Rb_treeI4nodeSt4pairIKS0_St6vectorIS0_SaIS0_EEESt10_Select1stIS6_ESt4lessIS0_ESaIS6_EE20_Reuse_or_alloc_nodeD2Ev,"axG",@progbits,_ZNSt8_Rb_treeI4nodeSt4pairIKS0_St6vectorIS0_SaIS0_EEESt10_Select1stIS6_ESt4lessIS0_ESaIS6_EE20_Reuse_or_alloc_nodeD5Ev,comdat
	.align 2
	.weak	_ZNSt8_Rb_treeI4nodeSt4pairIKS0_St6vectorIS0_SaIS0_EEESt10_Select1stIS6_ESt4lessIS0_ESaIS6_EE20_Reuse_or_alloc_nodeD2Ev
	.type	_ZNSt8_Rb_treeI4nodeSt4pairIKS0_St6vectorIS0_SaIS0_EEESt10_Select1stIS6_ESt4lessIS0_ESaIS6_EE20_Reuse_or_alloc_nodeD2Ev, @function
_ZNSt8_Rb_treeI4nodeSt4pairIKS0_St6vectorIS0_SaIS0_EEESt10_Select1stIS6_ESt4lessIS0_ESaIS6_EE20_Reuse_or_alloc_nodeD2Ev:
.LFB4929:
	.cfi_startproc
	.cfi_personality 0x9b,DW.ref.__gxx_personality_v0
	.cfi_lsda 0x1b,.LLSDA4929
	endbr64
	pushq	%rbp
	.cfi_def_cfa_offset 16
	.cfi_offset 6, -16
	movq	%rsp, %rbp
	.cfi_def_cfa_register 6
	subq	$16, %rsp
	movq	%rdi, -8(%rbp)
	movq	-8(%rbp), %rax
	movq	16(%rax), %rax
	movq	-8(%rbp), %rdx
	movq	(%rdx), %rdx
	movq	%rdx, %rsi
	movq	%rax, %rdi
	call	_ZNSt8_Rb_treeI4nodeSt4pairIKS0_St6vectorIS0_SaIS0_EEESt10_Select1stIS6_ESt4lessIS0_ESaIS6_EE8_M_eraseEPSt13_Rb_tree_nodeIS6_E
	nop
	leave
	.cfi_def_cfa 7, 8
	ret
	.cfi_endproc
.LFE4929:
	.section	.gcc_except_table
.LLSDA4929:
	.byte	0xff
	.byte	0xff
	.byte	0x1
	.uleb128 .LLSDACSE4929-.LLSDACSB4929
.LLSDACSB4929:
.LLSDACSE4929:
	.section	.text._ZNSt8_Rb_treeI4nodeSt4pairIKS0_St6vectorIS0_SaIS0_EEESt10_Select1stIS6_ESt4lessIS0_ESaIS6_EE20_Reuse_or_alloc_nodeD2Ev,"axG",@progbits,_ZNSt8_Rb_treeI4nodeSt4pairIKS0_St6vectorIS0_SaIS0_EEESt10_Select1stIS6_ESt4lessIS0_ESaIS6_EE20_Reuse_or_alloc_nodeD5Ev,comdat
	.size	_ZNSt8_Rb_treeI4nodeSt4pairIKS0_St6vectorIS0_SaIS0_EEESt10_Select1stIS6_ESt4lessIS0_ESaIS6_EE20_Reuse_or_alloc_nodeD2Ev, .-_ZNSt8_Rb_treeI4nodeSt4pairIKS0_St6vectorIS0_SaIS0_EEESt10_Select1stIS6_ESt4lessIS0_ESaIS6_EE20_Reuse_or_alloc_nodeD2Ev
	.weak	_ZNSt8_Rb_treeI4nodeSt4pairIKS0_St6vectorIS0_SaIS0_EEESt10_Select1stIS6_ESt4lessIS0_ESaIS6_EE20_Reuse_or_alloc_nodeD1Ev
	.set	_ZNSt8_Rb_treeI4nodeSt4pairIKS0_St6vectorIS0_SaIS0_EEESt10_Select1stIS6_ESt4lessIS0_ESaIS6_EE20_Reuse_or_alloc_nodeD1Ev,_ZNSt8_Rb_treeI4nodeSt4pairIKS0_St6vectorIS0_SaIS0_EEESt10_Select1stIS6_ESt4lessIS0_ESaIS6_EE20_Reuse_or_alloc_nodeD2Ev
	.section	.text._ZNSt8_Rb_treeI4nodeSt4pairIKS0_St6vectorIS0_SaIS0_EEESt10_Select1stIS6_ESt4lessIS0_ESaIS6_EE7_M_copyILb0ENSC_20_Reuse_or_alloc_nodeEEEPSt13_Rb_tree_nodeIS6_ERKSC_RT0_,"axG",@progbits,_ZNSt8_Rb_treeI4nodeSt4pairIKS0_St6vectorIS0_SaIS0_EEESt10_Select1stIS6_ESt4lessIS0_ESaIS6_EE7_M_copyILb0ENSC_20_Reuse_or_alloc_nodeEEEPSt13_Rb_tree_nodeIS6_ERKSC_RT0_,comdat
	.align 2
	.weak	_ZNSt8_Rb_treeI4nodeSt4pairIKS0_St6vectorIS0_SaIS0_EEESt10_Select1stIS6_ESt4lessIS0_ESaIS6_EE7_M_copyILb0ENSC_20_Reuse_or_alloc_nodeEEEPSt13_Rb_tree_nodeIS6_ERKSC_RT0_
	.type	_ZNSt8_Rb_treeI4nodeSt4pairIKS0_St6vectorIS0_SaIS0_EEESt10_Select1stIS6_ESt4lessIS0_ESaIS6_EE7_M_copyILb0ENSC_20_Reuse_or_alloc_nodeEEEPSt13_Rb_tree_nodeIS6_ERKSC_RT0_, @function
_ZNSt8_Rb_treeI4nodeSt4pairIKS0_St6vectorIS0_SaIS0_EEESt10_Select1stIS6_ESt4lessIS0_ESaIS6_EE7_M_copyILb0ENSC_20_Reuse_or_alloc_nodeEEEPSt13_Rb_tree_nodeIS6_ERKSC_RT0_:
.LFB4931:
	.cfi_startproc
	endbr64
	pushq	%rbp
	.cfi_def_cfa_offset 16
	.cfi_offset 6, -16
	movq	%rsp, %rbp
	.cfi_def_cfa_register 6
	pushq	%rbx
	subq	$56, %rsp
	.cfi_offset 3, -24
	movq	%rdi, -40(%rbp)
	movq	%rsi, -48(%rbp)
	movq	%rdx, -56(%rbp)
	movq	-40(%rbp), %rax
	movq	%rax, %rdi
	call	_ZNSt8_Rb_treeI4nodeSt4pairIKS0_St6vectorIS0_SaIS0_EEESt10_Select1stIS6_ESt4lessIS0_ESaIS6_EE6_M_endEv
	movq	%rax, %rbx
	movq	-48(%rbp), %rax
	movq	%rax, %rdi
	call	_ZNKSt8_Rb_treeI4nodeSt4pairIKS0_St6vectorIS0_SaIS0_EEESt10_Select1stIS6_ESt4lessIS0_ESaIS6_EE9_M_mbeginEv
	movq	%rax, %rsi
	movq	-56(%rbp), %rdx
	movq	-40(%rbp), %rax
	movq	%rdx, %rcx
	movq	%rbx, %rdx
	movq	%rax, %rdi
	call	_ZNSt8_Rb_treeI4nodeSt4pairIKS0_St6vectorIS0_SaIS0_EEESt10_Select1stIS6_ESt4lessIS0_ESaIS6_EE7_M_copyILb0ENSC_20_Reuse_or_alloc_nodeEEEPSt13_Rb_tree_nodeIS6_ESH_PSt18_Rb_tree_node_baseRT0_
	movq	%rax, -24(%rbp)
	movq	-24(%rbp), %rax
	movq	%rax, %rdi
	call	_ZNSt8_Rb_treeI4nodeSt4pairIKS0_St6vectorIS0_SaIS0_EEESt10_Select1stIS6_ESt4lessIS0_ESaIS6_EE10_S_minimumEPSt18_Rb_tree_node_base
	movq	%rax, %rbx
	movq	-40(%rbp), %rax
	movq	%rax, %rdi
	call	_ZNSt8_Rb_treeI4nodeSt4pairIKS0_St6vectorIS0_SaIS0_EEESt10_Select1stIS6_ESt4lessIS0_ESaIS6_EE11_M_leftmostEv
	movq	%rbx, (%rax)
	movq	-24(%rbp), %rax
	movq	%rax, %rdi
	call	_ZNSt8_Rb_treeI4nodeSt4pairIKS0_St6vectorIS0_SaIS0_EEESt10_Select1stIS6_ESt4lessIS0_ESaIS6_EE10_S_maximumEPSt18_Rb_tree_node_base
	movq	%rax, %rbx
	movq	-40(%rbp), %rax
	movq	%rax, %rdi
	call	_ZNSt8_Rb_treeI4nodeSt4pairIKS0_St6vectorIS0_SaIS0_EEESt10_Select1stIS6_ESt4lessIS0_ESaIS6_EE12_M_rightmostEv
	movq	%rbx, (%rax)
	movq	-48(%rbp), %rax
	movq	40(%rax), %rdx
	movq	-40(%rbp), %rax
	movq	%rdx, 40(%rax)
	movq	-24(%rbp), %rax
	movq	-8(%rbp), %rbx
	leave
	.cfi_def_cfa 7, 8
	ret
	.cfi_endproc
.LFE4931:
	.size	_ZNSt8_Rb_treeI4nodeSt4pairIKS0_St6vectorIS0_SaIS0_EEESt10_Select1stIS6_ESt4lessIS0_ESaIS6_EE7_M_copyILb0ENSC_20_Reuse_or_alloc_nodeEEEPSt13_Rb_tree_nodeIS6_ERKSC_RT0_, .-_ZNSt8_Rb_treeI4nodeSt4pairIKS0_St6vectorIS0_SaIS0_EEESt10_Select1stIS6_ESt4lessIS0_ESaIS6_EE7_M_copyILb0ENSC_20_Reuse_or_alloc_nodeEEEPSt13_Rb_tree_nodeIS6_ERKSC_RT0_
	.section	.text._ZNSt15__new_allocatorIP5node2EC2Ev,"axG",@progbits,_ZNSt15__new_allocatorIP5node2EC5Ev,comdat
	.align 2
	.weak	_ZNSt15__new_allocatorIP5node2EC2Ev
	.type	_ZNSt15__new_allocatorIP5node2EC2Ev, @function
_ZNSt15__new_allocatorIP5node2EC2Ev:
.LFB4933:
	.cfi_startproc
	endbr64
	pushq	%rbp
	.cfi_def_cfa_offset 16
	.cfi_offset 6, -16
	movq	%rsp, %rbp
	.cfi_def_cfa_register 6
	movq	%rdi, -8(%rbp)
	nop
	popq	%rbp
	.cfi_def_cfa 7, 8
	ret
	.cfi_endproc
.LFE4933:
	.size	_ZNSt15__new_allocatorIP5node2EC2Ev, .-_ZNSt15__new_allocatorIP5node2EC2Ev
	.weak	_ZNSt15__new_allocatorIP5node2EC1Ev
	.set	_ZNSt15__new_allocatorIP5node2EC1Ev,_ZNSt15__new_allocatorIP5node2EC2Ev
	.section	.text._ZNSt15__new_allocatorIP5node2ED2Ev,"axG",@progbits,_ZNSt15__new_allocatorIP5node2ED5Ev,comdat
	.align 2
	.weak	_ZNSt15__new_allocatorIP5node2ED2Ev
	.type	_ZNSt15__new_allocatorIP5node2ED2Ev, @function
_ZNSt15__new_allocatorIP5node2ED2Ev:
.LFB4936:
	.cfi_startproc
	endbr64
	pushq	%rbp
	.cfi_def_cfa_offset 16
	.cfi_offset 6, -16
	movq	%rsp, %rbp
	.cfi_def_cfa_register 6
	movq	%rdi, -8(%rbp)
	nop
	popq	%rbp
	.cfi_def_cfa 7, 8
	ret
	.cfi_endproc
.LFE4936:
	.size	_ZNSt15__new_allocatorIP5node2ED2Ev, .-_ZNSt15__new_allocatorIP5node2ED2Ev
	.weak	_ZNSt15__new_allocatorIP5node2ED1Ev
	.set	_ZNSt15__new_allocatorIP5node2ED1Ev,_ZNSt15__new_allocatorIP5node2ED2Ev
	.section	.text._ZNSt11_Deque_baseIP5node2SaIS1_EE11_Deque_implD2Ev,"axG",@progbits,_ZNSt11_Deque_baseIP5node2SaIS1_EE11_Deque_implD5Ev,comdat
	.align 2
	.weak	_ZNSt11_Deque_baseIP5node2SaIS1_EE11_Deque_implD2Ev
	.type	_ZNSt11_Deque_baseIP5node2SaIS1_EE11_Deque_implD2Ev, @function
_ZNSt11_Deque_baseIP5node2SaIS1_EE11_Deque_implD2Ev:
.LFB4940:
	.cfi_startproc
	endbr64
	pushq	%rbp
	.cfi_def_cfa_offset 16
	.cfi_offset 6, -16
	movq	%rsp, %rbp
	.cfi_def_cfa_register 6
	subq	$16, %rsp
	movq	%rdi, -8(%rbp)
	movq	-8(%rbp), %rax
	movq	%rax, %rdi
	call	_ZNSaIP5node2ED2Ev
	nop
	leave
	.cfi_def_cfa 7, 8
	ret
	.cfi_endproc
.LFE4940:
	.size	_ZNSt11_Deque_baseIP5node2SaIS1_EE11_Deque_implD2Ev, .-_ZNSt11_Deque_baseIP5node2SaIS1_EE11_Deque_implD2Ev
	.weak	_ZNSt11_Deque_baseIP5node2SaIS1_EE11_Deque_implD1Ev
	.set	_ZNSt11_Deque_baseIP5node2SaIS1_EE11_Deque_implD1Ev,_ZNSt11_Deque_baseIP5node2SaIS1_EE11_Deque_implD2Ev
	.section	.text._ZNSt11_Deque_baseIP5node2SaIS1_EEC2ERKS2_,"axG",@progbits,_ZNSt11_Deque_baseIP5node2SaIS1_EEC5ERKS2_,comdat
	.align 2
	.weak	_ZNSt11_Deque_baseIP5node2SaIS1_EEC2ERKS2_
	.type	_ZNSt11_Deque_baseIP5node2SaIS1_EEC2ERKS2_, @function
_ZNSt11_Deque_baseIP5node2SaIS1_EEC2ERKS2_:
.LFB4942:
	.cfi_startproc
	endbr64
	pushq	%rbp
	.cfi_def_cfa_offset 16
	.cfi_offset 6, -16
	movq	%rsp, %rbp
	.cfi_def_cfa_register 6
	subq	$16, %rsp
	movq	%rdi, -8(%rbp)
	movq	%rsi, -16(%rbp)
	movq	-8(%rbp), %rax
	movq	-16(%rbp), %rdx
	movq	%rdx, %rsi
	movq	%rax, %rdi
	call	_ZNSt11_Deque_baseIP5node2SaIS1_EE11_Deque_implC1ERKS2_
	nop
	leave
	.cfi_def_cfa 7, 8
	ret
	.cfi_endproc
.LFE4942:
	.size	_ZNSt11_Deque_baseIP5node2SaIS1_EEC2ERKS2_, .-_ZNSt11_Deque_baseIP5node2SaIS1_EEC2ERKS2_
	.weak	_ZNSt11_Deque_baseIP5node2SaIS1_EEC1ERKS2_
	.set	_ZNSt11_Deque_baseIP5node2SaIS1_EEC1ERKS2_,_ZNSt11_Deque_baseIP5node2SaIS1_EEC2ERKS2_
	.section	.text._ZNSt11_Deque_baseIP5node2SaIS1_EED2Ev,"axG",@progbits,_ZNSt11_Deque_baseIP5node2SaIS1_EED5Ev,comdat
	.align 2
	.weak	_ZNSt11_Deque_baseIP5node2SaIS1_EED2Ev
	.type	_ZNSt11_Deque_baseIP5node2SaIS1_EED2Ev, @function
_ZNSt11_Deque_baseIP5node2SaIS1_EED2Ev:
.LFB4945:
	.cfi_startproc
	endbr64
	pushq	%rbp
	.cfi_def_cfa_offset 16
	.cfi_offset 6, -16
	movq	%rsp, %rbp
	.cfi_def_cfa_register 6
	subq	$16, %rsp
	movq	%rdi, -8(%rbp)
	movq	-8(%rbp), %rax
	movq	(%rax), %rax
	testq	%rax, %rax
	je	.L480
	movq	-8(%rbp), %rax
	movq	72(%rax), %rax
	leaq	8(%rax), %rdx
	movq	-8(%rbp), %rax
	movq	40(%rax), %rcx
	movq	-8(%rbp), %rax
	movq	%rcx, %rsi
	movq	%rax, %rdi
	call	_ZNSt11_Deque_baseIP5node2SaIS1_EE16_M_destroy_nodesEPPS1_S5_
	movq	-8(%rbp), %rax
	movq	8(%rax), %rdx
	movq	-8(%rbp), %rax
	movq	(%rax), %rcx
	movq	-8(%rbp), %rax
	movq	%rcx, %rsi
	movq	%rax, %rdi
	call	_ZNSt11_Deque_baseIP5node2SaIS1_EE17_M_deallocate_mapEPPS1_m
.L480:
	movq	-8(%rbp), %rax
	movq	%rax, %rdi
	call	_ZNSt11_Deque_baseIP5node2SaIS1_EE11_Deque_implD1Ev
	nop
	leave
	.cfi_def_cfa 7, 8
	ret
	.cfi_endproc
.LFE4945:
	.size	_ZNSt11_Deque_baseIP5node2SaIS1_EED2Ev, .-_ZNSt11_Deque_baseIP5node2SaIS1_EED2Ev
	.weak	_ZNSt11_Deque_baseIP5node2SaIS1_EED1Ev
	.set	_ZNSt11_Deque_baseIP5node2SaIS1_EED1Ev,_ZNSt11_Deque_baseIP5node2SaIS1_EED2Ev
	.section	.text._ZNKSt16initializer_listIP5node2E5beginEv,"axG",@progbits,_ZNKSt16initializer_listIP5node2E5beginEv,comdat
	.align 2
	.weak	_ZNKSt16initializer_listIP5node2E5beginEv
	.type	_ZNKSt16initializer_listIP5node2E5beginEv, @function
_ZNKSt16initializer_listIP5node2E5beginEv:
.LFB4947:
	.cfi_startproc
	endbr64
	pushq	%rbp
	.cfi_def_cfa_offset 16
	.cfi_offset 6, -16
	movq	%rsp, %rbp
	.cfi_def_cfa_register 6
	movq	%rdi, -8(%rbp)
	movq	-8(%rbp), %rax
	movq	(%rax), %rax
	popq	%rbp
	.cfi_def_cfa 7, 8
	ret
	.cfi_endproc
.LFE4947:
	.size	_ZNKSt16initializer_listIP5node2E5beginEv, .-_ZNKSt16initializer_listIP5node2E5beginEv
	.section	.text._ZNKSt16initializer_listIP5node2E3endEv,"axG",@progbits,_ZNKSt16initializer_listIP5node2E3endEv,comdat
	.align 2
	.weak	_ZNKSt16initializer_listIP5node2E3endEv
	.type	_ZNKSt16initializer_listIP5node2E3endEv, @function
_ZNKSt16initializer_listIP5node2E3endEv:
.LFB4948:
	.cfi_startproc
	endbr64
	pushq	%rbp
	.cfi_def_cfa_offset 16
	.cfi_offset 6, -16
	movq	%rsp, %rbp
	.cfi_def_cfa_register 6
	pushq	%rbx
	subq	$24, %rsp
	.cfi_offset 3, -24
	movq	%rdi, -24(%rbp)
	movq	-24(%rbp), %rax
	movq	%rax, %rdi
	call	_ZNKSt16initializer_listIP5node2E5beginEv
	movq	%rax, %rbx
	movq	-24(%rbp), %rax
	movq	%rax, %rdi
	call	_ZNKSt16initializer_listIP5node2E4sizeEv
	salq	$3, %rax
	addq	%rbx, %rax
	movq	-8(%rbp), %rbx
	leave
	.cfi_def_cfa 7, 8
	ret
	.cfi_endproc
.LFE4948:
	.size	_ZNKSt16initializer_listIP5node2E3endEv, .-_ZNKSt16initializer_listIP5node2E3endEv
	.section	.text._ZSt8distanceIPKP5node2ENSt15iterator_traitsIT_E15difference_typeES5_S5_,"axG",@progbits,_ZSt8distanceIPKP5node2ENSt15iterator_traitsIT_E15difference_typeES5_S5_,comdat
	.weak	_ZSt8distanceIPKP5node2ENSt15iterator_traitsIT_E15difference_typeES5_S5_
	.type	_ZSt8distanceIPKP5node2ENSt15iterator_traitsIT_E15difference_typeES5_S5_, @function
_ZSt8distanceIPKP5node2ENSt15iterator_traitsIT_E15difference_typeES5_S5_:
.LFB4950:
	.cfi_startproc
	endbr64
	pushq	%rbp
	.cfi_def_cfa_offset 16
	.cfi_offset 6, -16
	movq	%rsp, %rbp
	.cfi_def_cfa_register 6
	subq	$16, %rsp
	movq	%rdi, -8(%rbp)
	movq	%rsi, -16(%rbp)
	leaq	-8(%rbp), %rax
	movq	%rax, %rdi
	call	_ZSt19__iterator_categoryIPKP5node2ENSt15iterator_traitsIT_E17iterator_categoryERKS5_
	movq	-8(%rbp), %rax
	movq	-16(%rbp), %rdx
	movq	%rdx, %rsi
	movq	%rax, %rdi
	call	_ZSt10__distanceIPKP5node2ENSt15iterator_traitsIT_E15difference_typeES5_S5_St26random_access_iterator_tag
	leave
	.cfi_def_cfa 7, 8
	ret
	.cfi_endproc
.LFE4950:
	.size	_ZSt8distanceIPKP5node2ENSt15iterator_traitsIT_E15difference_typeES5_S5_, .-_ZSt8distanceIPKP5node2ENSt15iterator_traitsIT_E15difference_typeES5_S5_
	.section	.text._ZNSt5dequeIP5node2SaIS1_EE19_M_range_initializeIPKS1_EEvT_S7_St20forward_iterator_tag,"axG",@progbits,_ZNSt5dequeIP5node2SaIS1_EE19_M_range_initializeIPKS1_EEvT_S7_St20forward_iterator_tag,comdat
	.align 2
	.weak	_ZNSt5dequeIP5node2SaIS1_EE19_M_range_initializeIPKS1_EEvT_S7_St20forward_iterator_tag
	.type	_ZNSt5dequeIP5node2SaIS1_EE19_M_range_initializeIPKS1_EEvT_S7_St20forward_iterator_tag, @function
_ZNSt5dequeIP5node2SaIS1_EE19_M_range_initializeIPKS1_EEvT_S7_St20forward_iterator_tag:
.LFB4949:
	.cfi_startproc
	.cfi_personality 0x9b,DW.ref.__gxx_personality_v0
	.cfi_lsda 0x1b,.LLSDA4949
	endbr64
	pushq	%rbp
	.cfi_def_cfa_offset 16
	.cfi_offset 6, -16
	movq	%rsp, %rbp
	.cfi_def_cfa_register 6
	pushq	%rbx
	subq	$136, %rsp
	.cfi_offset 3, -24
	movq	%rdi, -120(%rbp)
	movq	%rsi, -128(%rbp)
	movq	%rdx, -136(%rbp)
	movq	%fs:40, %rax
	movq	%rax, -24(%rbp)
	xorl	%eax, %eax
	movq	-136(%rbp), %rdx
	movq	-128(%rbp), %rax
	movq	%rdx, %rsi
	movq	%rax, %rdi
	call	_ZSt8distanceIPKP5node2ENSt15iterator_traitsIT_E15difference_typeES5_S5_
	movq	%rax, -104(%rbp)
	movq	-120(%rbp), %rbx
	movq	-120(%rbp), %rax
	movq	%rax, %rdi
	call	_ZNSt11_Deque_baseIP5node2SaIS1_EE19_M_get_Tp_allocatorEv
	movq	%rax, %rdx
	movq	-104(%rbp), %rax
	movq	%rdx, %rsi
	movq	%rax, %rdi
.LEHB52:
	call	_ZNSt5dequeIP5node2SaIS1_EE17_S_check_init_lenEmRKS2_
	movq	%rax, %rsi
	movq	%rbx, %rdi
	call	_ZNSt11_Deque_baseIP5node2SaIS1_EE17_M_initialize_mapEm
.LEHE52:
	movq	-120(%rbp), %rax
	movq	40(%rax), %rax
	movq	%rax, -112(%rbp)
	jmp	.L488
.L490:
	call	_ZNSt5dequeIP5node2SaIS1_EE14_S_buffer_sizeEv
	cmpq	%rax, -104(%rbp)
	setb	%al
	testb	%al, %al
	movq	-128(%rbp), %rax
	movq	%rax, -64(%rbp)
	call	_ZNSt5dequeIP5node2SaIS1_EE14_S_buffer_sizeEv
	movq	%rax, %rdx
	leaq	-64(%rbp), %rax
	movq	%rdx, %rsi
	movq	%rax, %rdi
.LEHB53:
	call	_ZSt7advanceIPKP5node2mEvRT_T0_
	movq	-120(%rbp), %rax
	movq	%rax, %rdi
	call	_ZNSt11_Deque_baseIP5node2SaIS1_EE19_M_get_Tp_allocatorEv
	movq	%rax, %rcx
	movq	-112(%rbp), %rax
	movq	(%rax), %rdx
	movq	-64(%rbp), %rsi
	movq	-128(%rbp), %rax
	movq	%rax, %rdi
	call	_ZSt22__uninitialized_copy_aIPKP5node2PS1_S1_ET0_T_S6_S5_RSaIT1_E
	movq	-64(%rbp), %rax
	movq	%rax, -128(%rbp)
	addq	$8, -112(%rbp)
.L488:
	movq	-120(%rbp), %rax
	movq	72(%rax), %rax
	cmpq	%rax, -112(%rbp)
	jb	.L490
	movq	-120(%rbp), %rax
	movq	%rax, %rdi
